///////////////////////////////////////////////////////////////////////////////
//                                                                            /
// IAR C/C++ Compiler V8.10.3.10338/W32 for 8051        06/Oct/2017  23:49:08 /
// Copyright 2004-2011 IAR Systems AB.                                        /
//                                                                            /
//    Core               =  plain                                             /
//    Code model         =  banked                                            /
//    Data model         =  large                                             /
//    Calling convention =  xdata reentrant                                   /
//    Constant location  =  data_rom                                          /
//    Dptr setup         =  1,16                                              /
//    Source file        =  C:\workspace\ZStack-UART\Projects\zstack\Samples\ /
//                          GenericApp\Source\user_printf.c                   /
//    Command line       =  -f C:\workspace\ZStack-UART\Projects\zstack\Sampl /
//                          es\GenericApp\CC2530DB\..\..\..\Tools\CC2530DB\f8 /
//                          wCoord.cfg (-DCPU32MHZ -DROOT=__near_func         /
//                          -DMAC_CFG_APP_PENDING_QUEUE=TRUE                  /
//                          -DZDO_COORDINATOR -DRTR_NWK -DNV_RESTORE          /
//                          -DBLINK_LEDS) -f C:\workspace\ZStack-UART\Project /
//                          s\zstack\Samples\GenericApp\CC2530DB\..\..\..\Too /
//                          ls\CC2530DB\f8wConfig.cfg (-DSECURE=0             /
//                          -DZG_SECURE_DYNAMIC=0 -DREFLECTOR                 /
//                          -DDEFAULT_CHANLIST=0x00004000                     /
//                          -DZDAPP_CONFIG_PAN_ID=0xFFFF                      /
//                          -DNWK_START_DELAY=100 -DEXTENDED_JOINING_RANDOM_M /
//                          ASK=0x007F -DBEACON_REQUEST_DELAY=100             /
//                          -DBEACON_REQ_DELAY_MASK=0x00FF                    /
//                          -DROUTE_EXPIRY_TIME=30 -DAPSC_ACK_WAIT_DURATION_P /
//                          OLLED=3000 -DNWK_INDIRECT_MSG_TIMEOUT=7           /
//                          -DMAX_RREQ_ENTRIES=8 -DAPSC_MAX_FRAME_RETRIES=3   /
//                          -DNWK_MAX_DATA_RETRIES=2                          /
//                          -DMAX_POLL_FAILURE_RETRIES=2 -DMAX_BCAST=9        /
//                          -DAPS_MAX_GROUPS=16 -DMAX_RTG_ENTRIES=40          /
//                          -DNWK_MAX_BINDING_ENTRIES=4                       /
//                          -DMAX_BINDING_CLUSTER_IDS=4                       /
//                          "-DDEFAULT_KEY={0x01, 0x03, 0x05, 0x07, 0x09,     /
//                          0x0B, 0x0D, 0x0F, 0x00, 0x02, 0x04, 0x06, 0x08,   /
//                          0x0A, 0x0C, 0x0D}" -DMAC_MAX_FRAME_SIZE=116       /
//                          "-DCONST=const __code" -DGENERIC=__generic        /
//                          -DRFD_RCVC_ALWAYS_ON=FALSE -DPOLL_RATE=1000       /
//                          -DQUEUED_POLL_RATE=100 -DRESPONSE_POLL_RATE=100)  /
//                          -DREJOIN_POLL_RATE=440 C:\workspace\ZStack-UART\P /
//                          rojects\zstack\Samples\GenericApp\Source\user_pri /
//                          ntf.c -D ZIGBEEPRO -D NV_RESTORE -D ZTOOL_P1 -D   /
//                          xMT_TASK -D xMT_SYS_FUNC -D xMT_ZDO_FUNC -D       /
//                          LCD_SUPPORTED=DEBUG -lC                           /
//                          C:\workspace\ZStack-UART\Projects\zstack\Samples\ /
//                          GenericApp\CC2530DB\CoordinatorEB-Pro\List\ -lA   /
//                          C:\workspace\ZStack-UART\Projects\zstack\Samples\ /
//                          GenericApp\CC2530DB\CoordinatorEB-Pro\List\       /
//                          --diag_suppress Pe001,Pa010 -o                    /
//                          C:\workspace\ZStack-UART\Projects\zstack\Samples\ /
//                          GenericApp\CC2530DB\CoordinatorEB-Pro\Obj\ -e     /
//                          --debug --core=plain --dptr=16,1                  /
//                          --data_model=large --code_model=banked            /
//                          --calling_convention=xdata_reentrant              /
//                          --place_constants=data_rom --nr_virtual_regs 16   /
//                          -I C:\workspace\ZStack-UART\Projects\zstack\Sampl /
//                          es\GenericApp\CC2530DB\ -I                        /
//                          C:\workspace\ZStack-UART\Projects\zstack\Samples\ /
//                          GenericApp\CC2530DB\..\SOURCE\ -I                 /
//                          C:\workspace\ZStack-UART\Projects\zstack\Samples\ /
//                          GenericApp\CC2530DB\..\..\..\ZMAIN\TI2530DB\ -I   /
//                          C:\workspace\ZStack-UART\Projects\zstack\Samples\ /
//                          GenericApp\CC2530DB\..\..\..\..\..\COMPONENTS\MT\ /
//                           -I C:\workspace\ZStack-UART\Projects\zstack\Samp /
//                          les\GenericApp\CC2530DB\..\..\..\..\..\COMPONENTS /
//                          \HAL\INCLUDE\ -I C:\workspace\ZStack-UART\Project /
//                          s\zstack\Samples\GenericApp\CC2530DB\..\..\..\..\ /
//                          ..\COMPONENTS\HAL\TARGET\CC2530EB\ -I             /
//                          C:\workspace\ZStack-UART\Projects\zstack\Samples\ /
//                          GenericApp\CC2530DB\..\..\..\..\..\COMPONENTS\OSA /
//                          L\MCU\CCSOC\ -I C:\workspace\ZStack-UART\Projects /
//                          \zstack\Samples\GenericApp\CC2530DB\..\..\..\..\. /
//                          .\COMPONENTS\OSAL\INCLUDE\ -I                     /
//                          C:\workspace\ZStack-UART\Projects\zstack\Samples\ /
//                          GenericApp\CC2530DB\..\..\..\..\..\COMPONENTS\STA /
//                          CK\AF\ -I C:\workspace\ZStack-UART\Projects\zstac /
//                          k\Samples\GenericApp\CC2530DB\..\..\..\..\..\COMP /
//                          ONENTS\STACK\NWK\ -I C:\workspace\ZStack-UART\Pro /
//                          jects\zstack\Samples\GenericApp\CC2530DB\..\..\.. /
//                          \..\..\COMPONENTS\STACK\SEC\ -I                   /
//                          C:\workspace\ZStack-UART\Projects\zstack\Samples\ /
//                          GenericApp\CC2530DB\..\..\..\..\..\COMPONENTS\STA /
//                          CK\SAPI\ -I C:\workspace\ZStack-UART\Projects\zst /
//                          ack\Samples\GenericApp\CC2530DB\..\..\..\..\..\CO /
//                          MPONENTS\STACK\SYS\ -I C:\workspace\ZStack-UART\P /
//                          rojects\zstack\Samples\GenericApp\CC2530DB\..\..\ /
//                          ..\..\..\COMPONENTS\STACK\ZDO\ -I                 /
//                          C:\workspace\ZStack-UART\Projects\zstack\Samples\ /
//                          GenericApp\CC2530DB\..\..\..\..\..\COMPONENTS\ZMA /
//                          C\F8W\ -I C:\workspace\ZStack-UART\Projects\zstac /
//                          k\Samples\GenericApp\CC2530DB\..\..\..\..\..\COMP /
//                          ONENTS\ZMAC\ -I C:\workspace\ZStack-UART\Projects /
//                          \zstack\Samples\GenericApp\CC2530DB\..\..\..\..\. /
//                          .\COMPONENTS\SERVICES\SADDR\ -I                   /
//                          C:\workspace\ZStack-UART\Projects\zstack\Samples\ /
//                          GenericApp\CC2530DB\..\..\..\..\..\COMPONENTS\SER /
//                          VICES\SDATA\ -I C:\workspace\ZStack-UART\Projects /
//                          \zstack\Samples\GenericApp\CC2530DB\..\..\..\..\. /
//                          .\COMPONENTS\MAC\INCLUDE\ -I                      /
//                          C:\workspace\ZStack-UART\Projects\zstack\Samples\ /
//                          GenericApp\CC2530DB\..\..\..\..\..\COMPONENTS\MAC /
//                          \HIGH_LEVEL\ -I C:\workspace\ZStack-UART\Projects /
//                          \zstack\Samples\GenericApp\CC2530DB\..\..\..\..\. /
//                          .\COMPONENTS\MAC\LOW_LEVEL\srf04\ -I              /
//                          C:\workspace\ZStack-UART\Projects\zstack\Samples\ /
//                          GenericApp\CC2530DB\..\..\..\..\..\COMPONENTS\MAC /
//                          \LOW_LEVEL\srf04\SINGLE_CHIP\ -Ohz                /
//                          --require_prototypes                              /
//    List file          =  C:\workspace\ZStack-UART\Projects\zstack\Samples\ /
//                          GenericApp\CC2530DB\CoordinatorEB-Pro\List\user_p /
//                          rintf.s51                                         /
//                                                                            /
//                                                                            /
///////////////////////////////////////////////////////////////////////////////

        NAME user_printf

        RTMODEL "__SystemLibrary", "CLib"
        RTMODEL "__calling_convention", "xdata_reentrant"
        RTMODEL "__code_model", "banked"
        RTMODEL "__core", "plain"
        RTMODEL "__data_model", "large"
        RTMODEL "__dptr_size", "16"
        RTMODEL "__extended_stack", "disabled"
        RTMODEL "__location_for_constants", "data"
        RTMODEL "__number_of_dptrs", "1"
        RTMODEL "__rt_version", "1"

        RSEG DOVERLAY:DATA:NOROOT(0)
        RSEG IOVERLAY:IDATA:NOROOT(0)
        RSEG ISTACK:IDATA:NOROOT(0)
        RSEG PSTACK:XDATA:NOROOT(0)
        RSEG XSTACK:XDATA:NOROOT(0)

        EXTERN ?ALLOC_XSTACK8
        EXTERN ?BANKED_ENTER_XDATA
        EXTERN ?BANKED_LEAVE_XDATA
        EXTERN ?BDISPATCH
        EXTERN ?BRET
        EXTERN ?DEALLOC_XSTACK8
        EXTERN ?PUSH_XSTACK_I_TWO
        EXTERN ?US_DIV_MOD
        EXTERN ?V0
        EXTERN ?XSP
        EXTERN ?XSTACK_DISP0_8

        FUNCTION ??print?relay,0203H
        FUNCTION ??printchar?relay,0203H
        PUBLIC ??printf?relay
        FUNCTION ??printf?relay,0203H
        FUNCTION ??printi?relay,0203H
        FUNCTION ??prints?relay,0203H
        PUBLIC ??putchar?relay
        FUNCTION ??putchar?relay,0203H
        PUBLIC ??sprintf?relay
        FUNCTION ??sprintf?relay,0203H
        FUNCTION print,021203H
        ARGFRAME XSTACK, 16, STACK
        ARGFRAME IOVERLAY, 0, STATIC
        ARGFRAME DOVERLAY, 0, STATIC
        LOCFRAME ISTACK, 1, STACK
        LOCFRAME XSTACK, 30, STACK
        FUNCTION printchar,021203H
        ARGFRAME XSTACK, 30, STACK
        ARGFRAME IOVERLAY, 0, STATIC
        ARGFRAME DOVERLAY, 0, STATIC
        LOCFRAME ISTACK, 3, STACK
        PUBLIC printf
        FUNCTION printf,021203H
        ARGFRAME XSTACK, 0, STACK
        LOCFRAME XSTACK, 14, STACK
        FUNCTION printi,021203H
        ARGFRAME XSTACK, 30, STACK
        ARGFRAME IOVERLAY, 0, STATIC
        ARGFRAME DOVERLAY, 0, STATIC
        LOCFRAME ISTACK, 1, STACK
        LOCFRAME XSTACK, 34, STACK
        FUNCTION prints,021203H
        ARGFRAME XSTACK, 34, STACK
        ARGFRAME IOVERLAY, 0, STATIC
        ARGFRAME DOVERLAY, 0, STATIC
        LOCFRAME XSTACK, 18, STACK
        PUBLIC putchar
        FUNCTION putchar,021203H
        ARGFRAME XSTACK, 0, STACK
        ARGFRAME IOVERLAY, 0, STATIC
        ARGFRAME DOVERLAY, 0, STATIC
        LOCFRAME ISTACK, 3, STACK
        LOCFRAME XSTACK, 1, STACK
        PUBLIC sprintf
        FUNCTION sprintf,021203H
        ARGFRAME XSTACK, 0, STACK
        LOCFRAME XSTACK, 16, STACK
        
        CFI Names cfiNames0
        CFI StackFrame CFA_SP SP IDATA
        CFI StackFrame CFA_PSP16 PSP16 XDATA
        CFI StackFrame CFA_XSP16 XSP16 XDATA
        CFI StaticOverlayFrame CFA_IOVERLAY IOVERLAY
        CFI StaticOverlayFrame CFA_DOVERLAY DOVERLAY
        CFI Resource `PSW.CY`:1, `B.BR0`:1, `B.BR1`:1, `B.BR2`:1, `B.BR3`:1
        CFI Resource `B.BR4`:1, `B.BR5`:1, `B.BR6`:1, `B.BR7`:1, `VB.BR8`:1
        CFI Resource `VB.BR9`:1, `VB.BR10`:1, `VB.BR11`:1, `VB.BR12`:1
        CFI Resource `VB.BR13`:1, `VB.BR14`:1, `VB.BR15`:1, VB:8, B:8, A:8
        CFI Resource PSW:8, DPL0:8, DPH0:8, R0:8, R1:8, R2:8, R3:8, R4:8, R5:8
        CFI Resource R6:8, R7:8, V0:8, V1:8, V2:8, V3:8, V4:8, V5:8, V6:8, V7:8
        CFI Resource V8:8, V9:8, V10:8, V11:8, V12:8, V13:8, V14:8, V15:8, SP:8
        CFI Resource PSPH:8, PSPL:8, PSP16:16, XSPH:8, XSPL:8, XSP16:16
        CFI VirtualResource ?RET:24
        CFI Resource ?BRET_EXT:8
        CFI VirtualResource ?RET_HIGH:8, ?RET_LOW:8
        CFI ResourceParts PSP16 PSPH, PSPL
        CFI ResourceParts XSP16 XSPH, XSPL
        CFI ResourceParts ?RET ?BRET_EXT, ?RET_HIGH, ?RET_LOW
        CFI EndNames cfiNames0
        
        CFI Common cfiCommon0 Using cfiNames0
        CFI CodeAlign 1
        CFI DataAlign -1
        CFI ReturnAddress ?RET CODE
        CFI CFA_DOVERLAY Used
        CFI CFA_IOVERLAY Used
        CFI CFA_SP SP+-3
        CFI CFA_PSP16 PSP16+0
        CFI CFA_XSP16 XSP16+0
        CFI `PSW.CY` SameValue
        CFI `B.BR0` SameValue
        CFI `B.BR1` SameValue
        CFI `B.BR2` SameValue
        CFI `B.BR3` SameValue
        CFI `B.BR4` SameValue
        CFI `B.BR5` SameValue
        CFI `B.BR6` SameValue
        CFI `B.BR7` SameValue
        CFI `VB.BR8` SameValue
        CFI `VB.BR9` SameValue
        CFI `VB.BR10` SameValue
        CFI `VB.BR11` SameValue
        CFI `VB.BR12` SameValue
        CFI `VB.BR13` SameValue
        CFI `VB.BR14` SameValue
        CFI `VB.BR15` SameValue
        CFI VB SameValue
        CFI B Undefined
        CFI A Undefined
        CFI PSW SameValue
        CFI DPL0 SameValue
        CFI DPH0 SameValue
        CFI R0 Undefined
        CFI R1 Undefined
        CFI R2 Undefined
        CFI R3 Undefined
        CFI R4 Undefined
        CFI R5 Undefined
        CFI R6 SameValue
        CFI R7 SameValue
        CFI V0 SameValue
        CFI V1 SameValue
        CFI V2 SameValue
        CFI V3 SameValue
        CFI V4 SameValue
        CFI V5 SameValue
        CFI V6 SameValue
        CFI V7 SameValue
        CFI V8 SameValue
        CFI V9 SameValue
        CFI V10 SameValue
        CFI V11 SameValue
        CFI V12 SameValue
        CFI V13 SameValue
        CFI V14 SameValue
        CFI V15 SameValue
        CFI PSPH Undefined
        CFI PSPL Undefined
        CFI XSPH Undefined
        CFI XSPL Undefined
        CFI ?RET Concat
        CFI ?BRET_EXT Frame(CFA_SP, 3)
        CFI ?RET_HIGH Frame(CFA_SP, 2)
        CFI ?RET_LOW Frame(CFA_SP, 1)
        CFI EndCommon cfiCommon0
        
        
        CFI Common cfiCommon1 Using cfiNames0
        CFI CodeAlign 1
        CFI DataAlign -1
        CFI ReturnAddress ?RET CODE
        CFI CFA_DOVERLAY Used
        CFI CFA_IOVERLAY Used
        CFI CFA_SP SP+-2
        CFI CFA_PSP16 PSP16+0
        CFI CFA_XSP16 XSP16+0
        CFI `PSW.CY` SameValue
        CFI `B.BR0` SameValue
        CFI `B.BR1` SameValue
        CFI `B.BR2` SameValue
        CFI `B.BR3` SameValue
        CFI `B.BR4` SameValue
        CFI `B.BR5` SameValue
        CFI `B.BR6` SameValue
        CFI `B.BR7` SameValue
        CFI `VB.BR8` SameValue
        CFI `VB.BR9` SameValue
        CFI `VB.BR10` SameValue
        CFI `VB.BR11` SameValue
        CFI `VB.BR12` SameValue
        CFI `VB.BR13` SameValue
        CFI `VB.BR14` SameValue
        CFI `VB.BR15` SameValue
        CFI VB SameValue
        CFI B SameValue
        CFI A SameValue
        CFI PSW SameValue
        CFI DPL0 SameValue
        CFI DPH0 SameValue
        CFI R0 SameValue
        CFI R1 SameValue
        CFI R2 SameValue
        CFI R3 SameValue
        CFI R4 SameValue
        CFI R5 SameValue
        CFI R6 SameValue
        CFI R7 SameValue
        CFI V0 SameValue
        CFI V1 SameValue
        CFI V2 SameValue
        CFI V3 SameValue
        CFI V4 SameValue
        CFI V5 SameValue
        CFI V6 SameValue
        CFI V7 SameValue
        CFI V8 SameValue
        CFI V9 SameValue
        CFI V10 SameValue
        CFI V11 SameValue
        CFI V12 SameValue
        CFI V13 SameValue
        CFI V14 SameValue
        CFI V15 SameValue
        CFI PSPH Undefined
        CFI PSPL Undefined
        CFI XSPH Undefined
        CFI XSPL Undefined
        CFI ?RET Concat
        CFI ?BRET_EXT SameValue
        CFI ?RET_HIGH Frame(CFA_SP, 2)
        CFI ?RET_LOW Frame(CFA_SP, 1)
        CFI EndCommon cfiCommon1
        
HalUARTWrite        SYMBOL "HalUARTWrite"
??HalUARTWrite?relay SYMBOL "?relay", HalUARTWrite
printf              SYMBOL "printf"
??printf?relay      SYMBOL "?relay", printf
putchar             SYMBOL "putchar"
??putchar?relay     SYMBOL "?relay", putchar
sprintf             SYMBOL "sprintf"
??sprintf?relay     SYMBOL "?relay", sprintf

        EXTERN HalUARTWrite
        FUNCTION HalUARTWrite,0202H
        ARGFRAME ISTACK, 2, STACK
        ARGFRAME PSTACK, 0, STACK
        ARGFRAME XSTACK, 1, STACK
        ARGFRAME IOVERLAY, 0, STATIC
        ARGFRAME DOVERLAY, 0, STATIC
        EXTERN ??HalUARTWrite?relay
        FUNCTION ??HalUARTWrite?relay,00H

// C:\workspace\ZStack-UART\Projects\zstack\Samples\GenericApp\Source\user_printf.c
//    1 /*
//    2 	Copyright 2001, 2002 Georges Menie (www.menie.org)
//    3 	stdarg version contributed by Christian Ettinger
//    4 
//    5     This program is free software; you can redistribute it and/or modify
//    6     it under the terms of the GNU Lesser General Public License as published by
//    7     the Free Software Foundation; either version 2 of the License, or
//    8     (at your option) any later version.
//    9 
//   10     This program is distributed in the hope that it will be useful,
//   11     but WITHOUT ANY WARRANTY; without even the implied warranty of
//   12     MERCHANTABILITY or FITNESS FOR A PARTICULAR PURPOSE.  See the
//   13     GNU Lesser General Public License for more details.
//   14 
//   15     You should have received a copy of the GNU Lesser General Public License
//   16     along with this program; if not, write to the Free Software
//   17     Foundation, Inc., 59 Temple Place, Suite 330, Boston, MA  02111-1307  USA
//   18 */
//   19 
//   20 /*
//   21 	putchar is the only external dependency for this file,
//   22 	if you have a working putchar, leave it commented out.
//   23 	If not, uncomment the define below and
//   24 	replace outbyte(c) by your own function call.
//   25 
//   26 #define putchar(c) outbyte(c)
//   27 */
//   28 
//   29 #include "stdarg.h"
//   30 #include "user_printf.h"
//   31 #include "hal_uart.h"
//   32 
//   33 void putchar(char c);

        RSEG BANKED_CODE:CODE:NOROOT(0)
//   34 void putchar(char c){
putchar:
        CFI Block cfiBlock0 Using cfiCommon0
        CFI Function putchar
        CODE
        FUNCALL putchar, HalUARTWrite
        LOCFRAME ISTACK, 2, STACK
        LOCFRAME PSTACK, 0, STACK
        LOCFRAME XSTACK, 1, STACK
        LOCFRAME IOVERLAY, 0, STATIC
        LOCFRAME DOVERLAY, 0, STATIC
        ARGFRAME ISTACK, 2, STACK
        ARGFRAME PSTACK, 0, STACK
        ARGFRAME XSTACK, 1, STACK
        ARGFRAME IOVERLAY, 0, STATIC
        ARGFRAME DOVERLAY, 0, STATIC
        PUSH    DPL
        CFI DPL0 Frame(CFA_SP, 4)
        CFI CFA_SP SP+-4
        PUSH    DPH
        CFI DPH0 Frame(CFA_SP, 5)
        CFI CFA_SP SP+-5
        ; Saved register size: 2
        ; Auto size: 1
        MOV     A,#-0x1
        LCALL   ?ALLOC_XSTACK8
        CFI CFA_XSP16 add(XSP16, 1)
        MOV     A,R1
        MOV     DPL,?XSP + 0
        MOV     DPH,?XSP + 1
        MOVX    @DPTR,A
//   35   HalUARTWrite(HAL_UART_PORT_0,(uint8*)&c,1);
        ; Setup parameters for call to function HalUARTWrite
        MOV     R4,#0x1
        MOV     R5,#0x0
        MOV     R2,DPL
        MOV     R3,DPH
        MOV     R1,#0x0
        LCALL   ??HalUARTWrite?relay
//   36 }
        MOV     A,#0x1
        LCALL   ?DEALLOC_XSTACK8
        CFI EndBlock cfiBlock0
        REQUIRE ?Subroutine0
        ; // Fall through to label ?Subroutine0

        RSEG BANKED_CODE:CODE:NOROOT(0)
?Subroutine0:
        CFI Block cfiBlock1 Using cfiCommon0
        CFI NoFunction
        CFI CFA_SP SP+-5
        CFI DPL0 Frame(CFA_SP, 4)
        CFI DPH0 Frame(CFA_SP, 5)
        POP     DPH
        CFI CFA_SP SP+-4
        CFI DPH0 SameValue
        POP     DPL
        CFI CFA_SP SP+-3
        CFI DPL0 SameValue
        LJMP    ?BRET
        CFI EndBlock cfiBlock1
//   37 

        RSEG BANKED_CODE:CODE:NOROOT(0)
//   38 static void printchar(char **str, int c)
printchar:
        CFI Block cfiBlock2 Using cfiCommon0
        CFI Function printchar
        CODE
//   39 {
        FUNCALL printchar, putchar
        LOCFRAME ISTACK, 2, STACK
        LOCFRAME PSTACK, 0, STACK
        LOCFRAME XSTACK, 0, STACK
        LOCFRAME IOVERLAY, 0, STATIC
        LOCFRAME DOVERLAY, 0, STATIC
        ARGFRAME ISTACK, 2, STACK
        ARGFRAME PSTACK, 0, STACK
        ARGFRAME XSTACK, 0, STACK
        ARGFRAME IOVERLAY, 0, STATIC
        ARGFRAME DOVERLAY, 0, STATIC
        PUSH    DPL
        CFI DPL0 Frame(CFA_SP, 4)
        CFI CFA_SP SP+-4
        PUSH    DPH
        CFI DPH0 Frame(CFA_SP, 5)
        CFI CFA_SP SP+-5
        ; Saved register size: 2
        ; Auto size: 0
//   40 	extern void putchar(char c);
//   41 	
//   42 	if (str) {
        MOV     A,R2
        ORL     A,R3
        JZ      ??printchar_0
//   43 		**str = c;
        MOV     DPL,R2
        MOV     DPH,R3
        LCALL   ?Subroutine8 & 0xFFFF
??CrossCallReturnLabel_9:
        MOV     A,R4
        MOVX    @DPTR,A
//   44 		++(*str);
        MOV     DPL,R2
        MOV     DPH,R3
        MOVX    A,@DPTR
        ADD     A,#0x1
        MOV     R0,A
        INC     DPTR
        MOVX    A,@DPTR
        ADDC    A,#0x0
        MOV     R1,A
        MOV     DPL,R2
        MOV     DPH,R3
        MOV     A,R0
        MOVX    @DPTR,A
        INC     DPTR
        MOV     A,R1
        MOVX    @DPTR,A
        SJMP    ??printchar_1
//   45 	}
//   46 	else (void)putchar((char)c);
??printchar_0:
        ; Setup parameters for call to function putchar
        MOV     A,R4
        MOV     R1,A
        LCALL   ??putchar?relay
//   47 }
??printchar_1:
        SJMP    ?Subroutine0
        CFI EndBlock cfiBlock2
//   48 
//   49 #define PAD_RIGHT 1
//   50 #define PAD_ZERO 2
//   51 

        RSEG BANKED_CODE:CODE:NOROOT(0)
//   52 static int prints(char **out, const char *string, int width, int pad)
prints:
        CFI Block cfiBlock3 Using cfiCommon0
        CFI Function prints
        CODE
//   53 {
        FUNCALL prints, printchar
        LOCFRAME ISTACK, 0, STACK
        LOCFRAME PSTACK, 0, STACK
        LOCFRAME XSTACK, 18, STACK
        LOCFRAME IOVERLAY, 0, STATIC
        LOCFRAME DOVERLAY, 0, STATIC
        ARGFRAME ISTACK, 0, STACK
        ARGFRAME PSTACK, 0, STACK
        ARGFRAME XSTACK, 18, STACK
        ARGFRAME IOVERLAY, 0, STATIC
        ARGFRAME DOVERLAY, 0, STATIC
        FUNCALL prints, printchar
        LOCFRAME ISTACK, 0, STACK
        LOCFRAME PSTACK, 0, STACK
        LOCFRAME XSTACK, 18, STACK
        LOCFRAME IOVERLAY, 0, STATIC
        LOCFRAME DOVERLAY, 0, STATIC
        ARGFRAME ISTACK, 0, STACK
        ARGFRAME PSTACK, 0, STACK
        ARGFRAME XSTACK, 18, STACK
        ARGFRAME IOVERLAY, 0, STATIC
        ARGFRAME DOVERLAY, 0, STATIC
        FUNCALL prints, printchar
        LOCFRAME ISTACK, 0, STACK
        LOCFRAME PSTACK, 0, STACK
        LOCFRAME XSTACK, 18, STACK
        LOCFRAME IOVERLAY, 0, STATIC
        LOCFRAME DOVERLAY, 0, STATIC
        ARGFRAME ISTACK, 0, STACK
        ARGFRAME PSTACK, 0, STACK
        ARGFRAME XSTACK, 18, STACK
        ARGFRAME IOVERLAY, 0, STATIC
        ARGFRAME DOVERLAY, 0, STATIC
        MOV     A,#-0x12
        LCALL   ?BANKED_ENTER_XDATA
        CFI DPH0 load(1, XDATA, add(CFA_XSP16, literal(-1)))
        CFI DPL0 load(1, XDATA, add(CFA_XSP16, literal(-2)))
        CFI ?BRET_EXT load(1, XDATA, add(CFA_XSP16, literal(-3)))
        CFI ?RET_HIGH load(1, XDATA, add(CFA_XSP16, literal(-4)))
        CFI ?RET_LOW load(1, XDATA, add(CFA_XSP16, literal(-5)))
        CFI R7 load(1, XDATA, add(CFA_XSP16, literal(-6)))
        CFI V9 load(1, XDATA, add(CFA_XSP16, literal(-7)))
        CFI V8 load(1, XDATA, add(CFA_XSP16, literal(-8)))
        CFI V7 load(1, XDATA, add(CFA_XSP16, literal(-9)))
        CFI V6 load(1, XDATA, add(CFA_XSP16, literal(-10)))
        CFI V5 load(1, XDATA, add(CFA_XSP16, literal(-11)))
        CFI V4 load(1, XDATA, add(CFA_XSP16, literal(-12)))
        CFI V3 load(1, XDATA, add(CFA_XSP16, literal(-13)))
        CFI V2 load(1, XDATA, add(CFA_XSP16, literal(-14)))
        CFI V1 load(1, XDATA, add(CFA_XSP16, literal(-15)))
        CFI V0 load(1, XDATA, add(CFA_XSP16, literal(-16)))
        CFI VB load(1, XDATA, add(CFA_XSP16, literal(-17)))
        CFI R6 load(1, XDATA, add(CFA_XSP16, literal(-18)))
        CFI CFA_SP SP+0
        CFI CFA_XSP16 add(XSP16, 18)
        ; Saved register size: 18
        ; Auto size: 0
        MOV     ?V0 + 6,R2
        MOV     ?V0 + 7,R3
        MOV     ?V0 + 2,R4
        MOV     ?V0 + 3,R5
        MOV     A,#0x12
        LCALL   ?XSTACK_DISP0_8
        MOVX    A,@DPTR
        MOV     R6,A
        INC     DPTR
        MOVX    A,@DPTR
        MOV     R7,A
        MOV     A,#0x14
        LCALL   ?XSTACK_DISP0_8
        MOVX    A,@DPTR
        MOV     R0,A
//   54 	register int pc = 0, padchar = ' ';
        MOV     ?V0 + 0,#0x0
        MOV     ?V0 + 1,#0x0
        MOV     ?V0 + 4,#0x20
        MOV     ?V0 + 5,#0x0
//   55 
//   56 	if (width > 0) {
        LCALL   ?Subroutine7 & 0xFFFF
??CrossCallReturnLabel_6:
        JC      ??prints_0
//   57 		register int len = 0;
        MOV     R2,#0x0
        MOV     R3,#0x0
//   58 		register const char *ptr;
//   59 		for (ptr = string; *ptr; ++ptr) ++len;
        MOV     DPL,R4
        MOV     DPH,R5
        SJMP    ??prints_1
??prints_2:
        MOV     A,R2
        ADD     A,#0x1
        INC     R2
        MOV     A,R3
        ADDC    A,#0x0
        MOV     R3,A
        INC     DPTR
??prints_1:
        MOVX    A,@DPTR
        JNZ     ??prints_2
//   60 		if (len >= width) width = 0;
        CLR     C
        MOV     A,R2
        SUBB    A,R6
        MOV     A,R3
        SUBB    A,R7
        MOV     C,0xD0 /* PSW */.2
        XRL     A,PSW
        RLC     A
        JC      ??prints_3
        MOV     R6,#0x0
        MOV     R7,#0x0
        SJMP    ??prints_4
//   61 		else width -= len;
??prints_3:
        CLR     C
        MOV     A,R6
        SUBB    A,R2
        MOV     R6,A
        MOV     A,R7
        SUBB    A,R3
        MOV     R7,A
//   62 		if (pad & PAD_ZERO) padchar = '0';
??prints_4:
        MOV     A,R0
        ANL     A,#0x2
        JZ      ??prints_0
        MOV     ?V0 + 4,#0x30
//   63 	}
//   64 	if (!(pad & PAD_RIGHT)) {
??prints_0:
        MOV     A,R0
        MOV     C,0xE0 /* A   */.0
        JC      ??prints_5
        SJMP    ??CrossCallReturnLabel_4
//   65 		for ( ; width > 0; --width) {
//   66 			printchar (out, padchar);
??prints_6:
        ; Setup parameters for call to function printchar
        LCALL   ?Subroutine6 & 0xFFFF
//   67 			++pc;
//   68 		}
??CrossCallReturnLabel_4:
        LCALL   ?Subroutine7 & 0xFFFF
//   69 	}
??CrossCallReturnLabel_7:
        JNC     ??prints_6
//   70 	for ( ; *string ; ++string) {
??prints_5:
        MOV     DPL,?V0 + 2
        MOV     DPH,?V0 + 3
        MOVX    A,@DPTR
        JZ      ??CrossCallReturnLabel_5
//   71 		printchar (out, *string);
        ; Setup parameters for call to function printchar
        MOV     R4,A
        MOV     R5,#0x0
        LCALL   ?Subroutine9 & 0xFFFF
//   72 		++pc;
//   73 	}
??CrossCallReturnLabel_12:
        MOV     DPL,?V0 + 2
        MOV     DPH,?V0 + 3
        INC     DPTR
        MOV     ?V0 + 2,DPL
        MOV     ?V0 + 3,DPH
        SJMP    ??prints_5
//   74 	for ( ; width > 0; --width) {
//   75 		printchar (out, padchar);
??prints_7:
        ; Setup parameters for call to function printchar
        LCALL   ?Subroutine6 & 0xFFFF
//   76 		++pc;
//   77 	}
??CrossCallReturnLabel_5:
        LCALL   ?Subroutine7 & 0xFFFF
??CrossCallReturnLabel_8:
        JNC     ??prints_7
//   78 
//   79 	return pc;
        MOV     R2,?V0 + 0
        MOV     R3,?V0 + 1
        CFI EndBlock cfiBlock3
        REQUIRE ?Subroutine1
        ; // Fall through to label ?Subroutine1
//   80 }

        RSEG BANKED_CODE:CODE:NOROOT(0)
?Subroutine1:
        CFI Block cfiBlock4 Using cfiCommon0
        CFI NoFunction
        CFI CFA_SP SP+0
        CFI CFA_XSP16 add(XSP16, 18)
        CFI VB load(1, XDATA, add(CFA_XSP16, literal(-17)))
        CFI DPL0 load(1, XDATA, add(CFA_XSP16, literal(-2)))
        CFI DPH0 load(1, XDATA, add(CFA_XSP16, literal(-1)))
        CFI R6 load(1, XDATA, add(CFA_XSP16, literal(-18)))
        CFI R7 load(1, XDATA, add(CFA_XSP16, literal(-6)))
        CFI V0 load(1, XDATA, add(CFA_XSP16, literal(-16)))
        CFI V1 load(1, XDATA, add(CFA_XSP16, literal(-15)))
        CFI V2 load(1, XDATA, add(CFA_XSP16, literal(-14)))
        CFI V3 load(1, XDATA, add(CFA_XSP16, literal(-13)))
        CFI V4 load(1, XDATA, add(CFA_XSP16, literal(-12)))
        CFI V5 load(1, XDATA, add(CFA_XSP16, literal(-11)))
        CFI V6 load(1, XDATA, add(CFA_XSP16, literal(-10)))
        CFI V7 load(1, XDATA, add(CFA_XSP16, literal(-9)))
        CFI V8 load(1, XDATA, add(CFA_XSP16, literal(-8)))
        CFI V9 load(1, XDATA, add(CFA_XSP16, literal(-7)))
        CFI ?BRET_EXT load(1, XDATA, add(CFA_XSP16, literal(-3)))
        CFI ?RET_HIGH load(1, XDATA, add(CFA_XSP16, literal(-4)))
        CFI ?RET_LOW load(1, XDATA, add(CFA_XSP16, literal(-5)))
        MOV     R7,#0xa
        LJMP    ?BANKED_LEAVE_XDATA
        CFI EndBlock cfiBlock4

        RSEG BANKED_CODE:CODE:NOROOT(0)
?Subroutine7:
        CFI Block cfiCond5 Using cfiCommon0
        CFI NoFunction
        CFI Conditional ??CrossCallReturnLabel_6
        CFI R6 load(1, XDATA, add(CFA_XSP16, literal(-18)))
        CFI VB load(1, XDATA, add(CFA_XSP16, literal(-17)))
        CFI V0 load(1, XDATA, add(CFA_XSP16, literal(-16)))
        CFI V1 load(1, XDATA, add(CFA_XSP16, literal(-15)))
        CFI V2 load(1, XDATA, add(CFA_XSP16, literal(-14)))
        CFI V3 load(1, XDATA, add(CFA_XSP16, literal(-13)))
        CFI V4 load(1, XDATA, add(CFA_XSP16, literal(-12)))
        CFI V5 load(1, XDATA, add(CFA_XSP16, literal(-11)))
        CFI V6 load(1, XDATA, add(CFA_XSP16, literal(-10)))
        CFI V7 load(1, XDATA, add(CFA_XSP16, literal(-9)))
        CFI V8 load(1, XDATA, add(CFA_XSP16, literal(-8)))
        CFI V9 load(1, XDATA, add(CFA_XSP16, literal(-7)))
        CFI R7 load(1, XDATA, add(CFA_XSP16, literal(-6)))
        CFI ?RET_LOW load(1, XDATA, add(CFA_XSP16, literal(-5)))
        CFI ?RET_HIGH load(1, XDATA, add(CFA_XSP16, literal(-4)))
        CFI ?BRET_EXT load(1, XDATA, add(CFA_XSP16, literal(-3)))
        CFI DPL0 load(1, XDATA, add(CFA_XSP16, literal(-2)))
        CFI DPH0 load(1, XDATA, add(CFA_XSP16, literal(-1)))
        CFI CFA_SP SP+0
        CFI CFA_XSP16 add(XSP16, 18)
        CFI Block cfiCond6 Using cfiCommon0
        CFI (cfiCond6) NoFunction
        CFI (cfiCond6) Conditional ??CrossCallReturnLabel_7
        CFI (cfiCond6) R6 load(1, XDATA, add(CFA_XSP16, literal(-18)))
        CFI (cfiCond6) VB load(1, XDATA, add(CFA_XSP16, literal(-17)))
        CFI (cfiCond6) V0 load(1, XDATA, add(CFA_XSP16, literal(-16)))
        CFI (cfiCond6) V1 load(1, XDATA, add(CFA_XSP16, literal(-15)))
        CFI (cfiCond6) V2 load(1, XDATA, add(CFA_XSP16, literal(-14)))
        CFI (cfiCond6) V3 load(1, XDATA, add(CFA_XSP16, literal(-13)))
        CFI (cfiCond6) V4 load(1, XDATA, add(CFA_XSP16, literal(-12)))
        CFI (cfiCond6) V5 load(1, XDATA, add(CFA_XSP16, literal(-11)))
        CFI (cfiCond6) V6 load(1, XDATA, add(CFA_XSP16, literal(-10)))
        CFI (cfiCond6) V7 load(1, XDATA, add(CFA_XSP16, literal(-9)))
        CFI (cfiCond6) V8 load(1, XDATA, add(CFA_XSP16, literal(-8)))
        CFI (cfiCond6) V9 load(1, XDATA, add(CFA_XSP16, literal(-7)))
        CFI (cfiCond6) R7 load(1, XDATA, add(CFA_XSP16, literal(-6)))
        CFI (cfiCond6) ?RET_LOW load(1, XDATA, add(CFA_XSP16, literal(-5)))
        CFI (cfiCond6) ?RET_HIGH load(1, XDATA, add(CFA_XSP16, literal(-4)))
        CFI (cfiCond6) ?BRET_EXT load(1, XDATA, add(CFA_XSP16, literal(-3)))
        CFI (cfiCond6) DPL0 load(1, XDATA, add(CFA_XSP16, literal(-2)))
        CFI (cfiCond6) DPH0 load(1, XDATA, add(CFA_XSP16, literal(-1)))
        CFI (cfiCond6) CFA_SP SP+0
        CFI (cfiCond6) CFA_XSP16 add(XSP16, 18)
        CFI Block cfiCond7 Using cfiCommon0
        CFI (cfiCond7) NoFunction
        CFI (cfiCond7) Conditional ??CrossCallReturnLabel_8
        CFI (cfiCond7) R6 load(1, XDATA, add(CFA_XSP16, literal(-18)))
        CFI (cfiCond7) VB load(1, XDATA, add(CFA_XSP16, literal(-17)))
        CFI (cfiCond7) V0 load(1, XDATA, add(CFA_XSP16, literal(-16)))
        CFI (cfiCond7) V1 load(1, XDATA, add(CFA_XSP16, literal(-15)))
        CFI (cfiCond7) V2 load(1, XDATA, add(CFA_XSP16, literal(-14)))
        CFI (cfiCond7) V3 load(1, XDATA, add(CFA_XSP16, literal(-13)))
        CFI (cfiCond7) V4 load(1, XDATA, add(CFA_XSP16, literal(-12)))
        CFI (cfiCond7) V5 load(1, XDATA, add(CFA_XSP16, literal(-11)))
        CFI (cfiCond7) V6 load(1, XDATA, add(CFA_XSP16, literal(-10)))
        CFI (cfiCond7) V7 load(1, XDATA, add(CFA_XSP16, literal(-9)))
        CFI (cfiCond7) V8 load(1, XDATA, add(CFA_XSP16, literal(-8)))
        CFI (cfiCond7) V9 load(1, XDATA, add(CFA_XSP16, literal(-7)))
        CFI (cfiCond7) R7 load(1, XDATA, add(CFA_XSP16, literal(-6)))
        CFI (cfiCond7) ?RET_LOW load(1, XDATA, add(CFA_XSP16, literal(-5)))
        CFI (cfiCond7) ?RET_HIGH load(1, XDATA, add(CFA_XSP16, literal(-4)))
        CFI (cfiCond7) ?BRET_EXT load(1, XDATA, add(CFA_XSP16, literal(-3)))
        CFI (cfiCond7) DPL0 load(1, XDATA, add(CFA_XSP16, literal(-2)))
        CFI (cfiCond7) DPH0 load(1, XDATA, add(CFA_XSP16, literal(-1)))
        CFI (cfiCond7) CFA_SP SP+0
        CFI (cfiCond7) CFA_XSP16 add(XSP16, 18)
        CFI Block cfiPicker8 Using cfiCommon1
        CFI (cfiPicker8) NoFunction
        CFI (cfiPicker8) Picker
        CLR     C
        MOV     A,R6
        SUBB    A,#0x1
        MOV     A,R7
        LCALL   ?Subroutine11 & 0xFFFF
??CrossCallReturnLabel_16:
        RET
        CFI EndBlock cfiCond5
        CFI EndBlock cfiCond6
        CFI EndBlock cfiCond7
        CFI EndBlock cfiPicker8

        RSEG BANKED_CODE:CODE:NOROOT(0)
?Subroutine11:
        CFI Block cfiCond9 Using cfiCommon0
        CFI NoFunction
        CFI Conditional ??CrossCallReturnLabel_16, ??CrossCallReturnLabel_6
        CFI R6 load(1, XDATA, add(CFA_XSP16, literal(-18)))
        CFI VB load(1, XDATA, add(CFA_XSP16, literal(-17)))
        CFI V0 load(1, XDATA, add(CFA_XSP16, literal(-16)))
        CFI V1 load(1, XDATA, add(CFA_XSP16, literal(-15)))
        CFI V2 load(1, XDATA, add(CFA_XSP16, literal(-14)))
        CFI V3 load(1, XDATA, add(CFA_XSP16, literal(-13)))
        CFI V4 load(1, XDATA, add(CFA_XSP16, literal(-12)))
        CFI V5 load(1, XDATA, add(CFA_XSP16, literal(-11)))
        CFI V6 load(1, XDATA, add(CFA_XSP16, literal(-10)))
        CFI V7 load(1, XDATA, add(CFA_XSP16, literal(-9)))
        CFI V8 load(1, XDATA, add(CFA_XSP16, literal(-8)))
        CFI V9 load(1, XDATA, add(CFA_XSP16, literal(-7)))
        CFI R7 load(1, XDATA, add(CFA_XSP16, literal(-6)))
        CFI ?RET_LOW load(1, XDATA, add(CFA_XSP16, literal(-5)))
        CFI ?RET_HIGH load(1, XDATA, add(CFA_XSP16, literal(-4)))
        CFI ?BRET_EXT load(1, XDATA, add(CFA_XSP16, literal(-3)))
        CFI DPL0 load(1, XDATA, add(CFA_XSP16, literal(-2)))
        CFI DPH0 load(1, XDATA, add(CFA_XSP16, literal(-1)))
        CFI CFA_SP SP+0
        CFI CFA_XSP16 add(XSP16, 18)
        CFI Block cfiCond10 Using cfiCommon0
        CFI (cfiCond10) NoFunction
        CFI (cfiCond10) Conditional ??CrossCallReturnLabel_16, ??CrossCallReturnLabel_7
        CFI (cfiCond10) R6 load(1, XDATA, add(CFA_XSP16, literal(-18)))
        CFI (cfiCond10) VB load(1, XDATA, add(CFA_XSP16, literal(-17)))
        CFI (cfiCond10) V0 load(1, XDATA, add(CFA_XSP16, literal(-16)))
        CFI (cfiCond10) V1 load(1, XDATA, add(CFA_XSP16, literal(-15)))
        CFI (cfiCond10) V2 load(1, XDATA, add(CFA_XSP16, literal(-14)))
        CFI (cfiCond10) V3 load(1, XDATA, add(CFA_XSP16, literal(-13)))
        CFI (cfiCond10) V4 load(1, XDATA, add(CFA_XSP16, literal(-12)))
        CFI (cfiCond10) V5 load(1, XDATA, add(CFA_XSP16, literal(-11)))
        CFI (cfiCond10) V6 load(1, XDATA, add(CFA_XSP16, literal(-10)))
        CFI (cfiCond10) V7 load(1, XDATA, add(CFA_XSP16, literal(-9)))
        CFI (cfiCond10) V8 load(1, XDATA, add(CFA_XSP16, literal(-8)))
        CFI (cfiCond10) V9 load(1, XDATA, add(CFA_XSP16, literal(-7)))
        CFI (cfiCond10) R7 load(1, XDATA, add(CFA_XSP16, literal(-6)))
        CFI (cfiCond10) ?RET_LOW load(1, XDATA, add(CFA_XSP16, literal(-5)))
        CFI (cfiCond10) ?RET_HIGH load(1, XDATA, add(CFA_XSP16, literal(-4)))
        CFI (cfiCond10) ?BRET_EXT load(1, XDATA, add(CFA_XSP16, literal(-3)))
        CFI (cfiCond10) DPL0 load(1, XDATA, add(CFA_XSP16, literal(-2)))
        CFI (cfiCond10) DPH0 load(1, XDATA, add(CFA_XSP16, literal(-1)))
        CFI (cfiCond10) CFA_SP SP+0
        CFI (cfiCond10) CFA_XSP16 add(XSP16, 18)
        CFI Block cfiCond11 Using cfiCommon0
        CFI (cfiCond11) NoFunction
        CFI (cfiCond11) Conditional ??CrossCallReturnLabel_16, ??CrossCallReturnLabel_8
        CFI (cfiCond11) R6 load(1, XDATA, add(CFA_XSP16, literal(-18)))
        CFI (cfiCond11) VB load(1, XDATA, add(CFA_XSP16, literal(-17)))
        CFI (cfiCond11) V0 load(1, XDATA, add(CFA_XSP16, literal(-16)))
        CFI (cfiCond11) V1 load(1, XDATA, add(CFA_XSP16, literal(-15)))
        CFI (cfiCond11) V2 load(1, XDATA, add(CFA_XSP16, literal(-14)))
        CFI (cfiCond11) V3 load(1, XDATA, add(CFA_XSP16, literal(-13)))
        CFI (cfiCond11) V4 load(1, XDATA, add(CFA_XSP16, literal(-12)))
        CFI (cfiCond11) V5 load(1, XDATA, add(CFA_XSP16, literal(-11)))
        CFI (cfiCond11) V6 load(1, XDATA, add(CFA_XSP16, literal(-10)))
        CFI (cfiCond11) V7 load(1, XDATA, add(CFA_XSP16, literal(-9)))
        CFI (cfiCond11) V8 load(1, XDATA, add(CFA_XSP16, literal(-8)))
        CFI (cfiCond11) V9 load(1, XDATA, add(CFA_XSP16, literal(-7)))
        CFI (cfiCond11) R7 load(1, XDATA, add(CFA_XSP16, literal(-6)))
        CFI (cfiCond11) ?RET_LOW load(1, XDATA, add(CFA_XSP16, literal(-5)))
        CFI (cfiCond11) ?RET_HIGH load(1, XDATA, add(CFA_XSP16, literal(-4)))
        CFI (cfiCond11) ?BRET_EXT load(1, XDATA, add(CFA_XSP16, literal(-3)))
        CFI (cfiCond11) DPL0 load(1, XDATA, add(CFA_XSP16, literal(-2)))
        CFI (cfiCond11) DPH0 load(1, XDATA, add(CFA_XSP16, literal(-1)))
        CFI (cfiCond11) CFA_SP SP+0
        CFI (cfiCond11) CFA_XSP16 add(XSP16, 18)
        CFI Block cfiCond12 Using cfiCommon0
        CFI (cfiCond12) NoFunction
        CFI (cfiCond12) Conditional ??CrossCallReturnLabel_14
        CFI (cfiCond12) R6 load(1, XDATA, add(CFA_XSP16, literal(-24)))
        CFI (cfiCond12) VB load(1, XDATA, add(CFA_XSP16, literal(-23)))
        CFI (cfiCond12) V0 load(1, XDATA, add(CFA_XSP16, literal(-22)))
        CFI (cfiCond12) V1 load(1, XDATA, add(CFA_XSP16, literal(-21)))
        CFI (cfiCond12) V2 load(1, XDATA, add(CFA_XSP16, literal(-20)))
        CFI (cfiCond12) V3 load(1, XDATA, add(CFA_XSP16, literal(-19)))
        CFI (cfiCond12) V4 load(1, XDATA, add(CFA_XSP16, literal(-18)))
        CFI (cfiCond12) V5 load(1, XDATA, add(CFA_XSP16, literal(-17)))
        CFI (cfiCond12) V6 load(1, XDATA, add(CFA_XSP16, literal(-16)))
        CFI (cfiCond12) V7 load(1, XDATA, add(CFA_XSP16, literal(-15)))
        CFI (cfiCond12) V8 load(1, XDATA, add(CFA_XSP16, literal(-14)))
        CFI (cfiCond12) V9 load(1, XDATA, add(CFA_XSP16, literal(-13)))
        CFI (cfiCond12) V10 load(1, XDATA, add(CFA_XSP16, literal(-12)))
        CFI (cfiCond12) V11 load(1, XDATA, add(CFA_XSP16, literal(-11)))
        CFI (cfiCond12) V12 load(1, XDATA, add(CFA_XSP16, literal(-10)))
        CFI (cfiCond12) V13 load(1, XDATA, add(CFA_XSP16, literal(-9)))
        CFI (cfiCond12) V14 load(1, XDATA, add(CFA_XSP16, literal(-8)))
        CFI (cfiCond12) V15 load(1, XDATA, add(CFA_XSP16, literal(-7)))
        CFI (cfiCond12) R7 load(1, XDATA, add(CFA_XSP16, literal(-6)))
        CFI (cfiCond12) ?RET_LOW load(1, XDATA, add(CFA_XSP16, literal(-5)))
        CFI (cfiCond12) ?RET_HIGH load(1, XDATA, add(CFA_XSP16, literal(-4)))
        CFI (cfiCond12) ?BRET_EXT load(1, XDATA, add(CFA_XSP16, literal(-3)))
        CFI (cfiCond12) DPL0 load(1, XDATA, add(CFA_XSP16, literal(-2)))
        CFI (cfiCond12) DPH0 load(1, XDATA, add(CFA_XSP16, literal(-1)))
        CFI (cfiCond12) CFA_SP SP+0
        CFI (cfiCond12) CFA_XSP16 add(XSP16, 30)
        CFI Block cfiCond13 Using cfiCommon0
        CFI (cfiCond13) NoFunction
        CFI (cfiCond13) Conditional ??CrossCallReturnLabel_15
        CFI (cfiCond13) R6 load(1, XDATA, add(CFA_XSP16, literal(-24)))
        CFI (cfiCond13) VB load(1, XDATA, add(CFA_XSP16, literal(-23)))
        CFI (cfiCond13) V0 load(1, XDATA, add(CFA_XSP16, literal(-22)))
        CFI (cfiCond13) V1 load(1, XDATA, add(CFA_XSP16, literal(-21)))
        CFI (cfiCond13) V2 load(1, XDATA, add(CFA_XSP16, literal(-20)))
        CFI (cfiCond13) V3 load(1, XDATA, add(CFA_XSP16, literal(-19)))
        CFI (cfiCond13) V4 load(1, XDATA, add(CFA_XSP16, literal(-18)))
        CFI (cfiCond13) V5 load(1, XDATA, add(CFA_XSP16, literal(-17)))
        CFI (cfiCond13) V6 load(1, XDATA, add(CFA_XSP16, literal(-16)))
        CFI (cfiCond13) V7 load(1, XDATA, add(CFA_XSP16, literal(-15)))
        CFI (cfiCond13) V8 load(1, XDATA, add(CFA_XSP16, literal(-14)))
        CFI (cfiCond13) V9 load(1, XDATA, add(CFA_XSP16, literal(-13)))
        CFI (cfiCond13) V10 load(1, XDATA, add(CFA_XSP16, literal(-12)))
        CFI (cfiCond13) V11 load(1, XDATA, add(CFA_XSP16, literal(-11)))
        CFI (cfiCond13) V12 load(1, XDATA, add(CFA_XSP16, literal(-10)))
        CFI (cfiCond13) V13 load(1, XDATA, add(CFA_XSP16, literal(-9)))
        CFI (cfiCond13) V14 load(1, XDATA, add(CFA_XSP16, literal(-8)))
        CFI (cfiCond13) V15 load(1, XDATA, add(CFA_XSP16, literal(-7)))
        CFI (cfiCond13) R7 load(1, XDATA, add(CFA_XSP16, literal(-6)))
        CFI (cfiCond13) ?RET_LOW load(1, XDATA, add(CFA_XSP16, literal(-5)))
        CFI (cfiCond13) ?RET_HIGH load(1, XDATA, add(CFA_XSP16, literal(-4)))
        CFI (cfiCond13) ?BRET_EXT load(1, XDATA, add(CFA_XSP16, literal(-3)))
        CFI (cfiCond13) DPL0 load(1, XDATA, add(CFA_XSP16, literal(-2)))
        CFI (cfiCond13) DPH0 load(1, XDATA, add(CFA_XSP16, literal(-1)))
        CFI (cfiCond13) CFA_SP SP+0
        CFI (cfiCond13) CFA_XSP16 add(XSP16, 30)
        CFI Block cfiPicker14 Using cfiCommon1
        CFI (cfiPicker14) NoFunction
        CFI (cfiPicker14) Picker
        SUBB    A,#0x0
        MOV     C,0xD0 /* PSW */.2
        XRL     A,PSW
        RLC     A
        RET
        CFI EndBlock cfiCond9
        CFI EndBlock cfiCond10
        CFI EndBlock cfiCond11
        CFI EndBlock cfiCond12
        CFI EndBlock cfiCond13
        CFI EndBlock cfiPicker14

        RSEG BANKED_CODE:CODE:NOROOT(0)
?Subroutine6:
        CFI Block cfiCond15 Using cfiCommon0
        CFI NoFunction
        CFI Conditional ??CrossCallReturnLabel_4
        CFI R6 load(1, XDATA, add(CFA_XSP16, literal(-18)))
        CFI VB load(1, XDATA, add(CFA_XSP16, literal(-17)))
        CFI V0 load(1, XDATA, add(CFA_XSP16, literal(-16)))
        CFI V1 load(1, XDATA, add(CFA_XSP16, literal(-15)))
        CFI V2 load(1, XDATA, add(CFA_XSP16, literal(-14)))
        CFI V3 load(1, XDATA, add(CFA_XSP16, literal(-13)))
        CFI V4 load(1, XDATA, add(CFA_XSP16, literal(-12)))
        CFI V5 load(1, XDATA, add(CFA_XSP16, literal(-11)))
        CFI V6 load(1, XDATA, add(CFA_XSP16, literal(-10)))
        CFI V7 load(1, XDATA, add(CFA_XSP16, literal(-9)))
        CFI V8 load(1, XDATA, add(CFA_XSP16, literal(-8)))
        CFI V9 load(1, XDATA, add(CFA_XSP16, literal(-7)))
        CFI R7 load(1, XDATA, add(CFA_XSP16, literal(-6)))
        CFI ?RET_LOW load(1, XDATA, add(CFA_XSP16, literal(-5)))
        CFI ?RET_HIGH load(1, XDATA, add(CFA_XSP16, literal(-4)))
        CFI ?BRET_EXT load(1, XDATA, add(CFA_XSP16, literal(-3)))
        CFI DPL0 load(1, XDATA, add(CFA_XSP16, literal(-2)))
        CFI DPH0 load(1, XDATA, add(CFA_XSP16, literal(-1)))
        CFI CFA_SP SP+0
        CFI CFA_XSP16 add(XSP16, 18)
        CFI Block cfiCond16 Using cfiCommon0
        CFI (cfiCond16) NoFunction
        CFI (cfiCond16) Conditional ??CrossCallReturnLabel_5
        CFI (cfiCond16) R6 load(1, XDATA, add(CFA_XSP16, literal(-18)))
        CFI (cfiCond16) VB load(1, XDATA, add(CFA_XSP16, literal(-17)))
        CFI (cfiCond16) V0 load(1, XDATA, add(CFA_XSP16, literal(-16)))
        CFI (cfiCond16) V1 load(1, XDATA, add(CFA_XSP16, literal(-15)))
        CFI (cfiCond16) V2 load(1, XDATA, add(CFA_XSP16, literal(-14)))
        CFI (cfiCond16) V3 load(1, XDATA, add(CFA_XSP16, literal(-13)))
        CFI (cfiCond16) V4 load(1, XDATA, add(CFA_XSP16, literal(-12)))
        CFI (cfiCond16) V5 load(1, XDATA, add(CFA_XSP16, literal(-11)))
        CFI (cfiCond16) V6 load(1, XDATA, add(CFA_XSP16, literal(-10)))
        CFI (cfiCond16) V7 load(1, XDATA, add(CFA_XSP16, literal(-9)))
        CFI (cfiCond16) V8 load(1, XDATA, add(CFA_XSP16, literal(-8)))
        CFI (cfiCond16) V9 load(1, XDATA, add(CFA_XSP16, literal(-7)))
        CFI (cfiCond16) R7 load(1, XDATA, add(CFA_XSP16, literal(-6)))
        CFI (cfiCond16) ?RET_LOW load(1, XDATA, add(CFA_XSP16, literal(-5)))
        CFI (cfiCond16) ?RET_HIGH load(1, XDATA, add(CFA_XSP16, literal(-4)))
        CFI (cfiCond16) ?BRET_EXT load(1, XDATA, add(CFA_XSP16, literal(-3)))
        CFI (cfiCond16) DPL0 load(1, XDATA, add(CFA_XSP16, literal(-2)))
        CFI (cfiCond16) DPH0 load(1, XDATA, add(CFA_XSP16, literal(-1)))
        CFI (cfiCond16) CFA_SP SP+0
        CFI (cfiCond16) CFA_XSP16 add(XSP16, 18)
        CFI Block cfiPicker17 Using cfiCommon1
        CFI (cfiPicker17) NoFunction
        CFI (cfiPicker17) Picker
        MOV     R4,?V0 + 4
        MOV     R5,?V0 + 5
        LCALL   ?Subroutine9 & 0xFFFF
??CrossCallReturnLabel_13:
        MOV     A,R6
        ADD     A,#-0x1
        DEC     R6
        MOV     A,R7
        ADDC    A,#-0x1
        MOV     R7,A
        RET
        CFI EndBlock cfiCond15
        CFI EndBlock cfiCond16
        CFI EndBlock cfiPicker17

        RSEG BANKED_CODE:CODE:NOROOT(0)
?Subroutine9:
        CFI Block cfiCond18 Using cfiCommon0
        CFI NoFunction
        CFI Conditional ??CrossCallReturnLabel_12
        CFI R6 load(1, XDATA, add(CFA_XSP16, literal(-18)))
        CFI VB load(1, XDATA, add(CFA_XSP16, literal(-17)))
        CFI V0 load(1, XDATA, add(CFA_XSP16, literal(-16)))
        CFI V1 load(1, XDATA, add(CFA_XSP16, literal(-15)))
        CFI V2 load(1, XDATA, add(CFA_XSP16, literal(-14)))
        CFI V3 load(1, XDATA, add(CFA_XSP16, literal(-13)))
        CFI V4 load(1, XDATA, add(CFA_XSP16, literal(-12)))
        CFI V5 load(1, XDATA, add(CFA_XSP16, literal(-11)))
        CFI V6 load(1, XDATA, add(CFA_XSP16, literal(-10)))
        CFI V7 load(1, XDATA, add(CFA_XSP16, literal(-9)))
        CFI V8 load(1, XDATA, add(CFA_XSP16, literal(-8)))
        CFI V9 load(1, XDATA, add(CFA_XSP16, literal(-7)))
        CFI R7 load(1, XDATA, add(CFA_XSP16, literal(-6)))
        CFI ?RET_LOW load(1, XDATA, add(CFA_XSP16, literal(-5)))
        CFI ?RET_HIGH load(1, XDATA, add(CFA_XSP16, literal(-4)))
        CFI ?BRET_EXT load(1, XDATA, add(CFA_XSP16, literal(-3)))
        CFI DPL0 load(1, XDATA, add(CFA_XSP16, literal(-2)))
        CFI DPH0 load(1, XDATA, add(CFA_XSP16, literal(-1)))
        CFI CFA_SP SP+0
        CFI CFA_XSP16 add(XSP16, 18)
        CFI Block cfiCond19 Using cfiCommon0
        CFI (cfiCond19) NoFunction
        CFI (cfiCond19) Conditional ??CrossCallReturnLabel_13, ??CrossCallReturnLabel_4
        CFI (cfiCond19) R6 load(1, XDATA, add(CFA_XSP16, literal(-18)))
        CFI (cfiCond19) VB load(1, XDATA, add(CFA_XSP16, literal(-17)))
        CFI (cfiCond19) V0 load(1, XDATA, add(CFA_XSP16, literal(-16)))
        CFI (cfiCond19) V1 load(1, XDATA, add(CFA_XSP16, literal(-15)))
        CFI (cfiCond19) V2 load(1, XDATA, add(CFA_XSP16, literal(-14)))
        CFI (cfiCond19) V3 load(1, XDATA, add(CFA_XSP16, literal(-13)))
        CFI (cfiCond19) V4 load(1, XDATA, add(CFA_XSP16, literal(-12)))
        CFI (cfiCond19) V5 load(1, XDATA, add(CFA_XSP16, literal(-11)))
        CFI (cfiCond19) V6 load(1, XDATA, add(CFA_XSP16, literal(-10)))
        CFI (cfiCond19) V7 load(1, XDATA, add(CFA_XSP16, literal(-9)))
        CFI (cfiCond19) V8 load(1, XDATA, add(CFA_XSP16, literal(-8)))
        CFI (cfiCond19) V9 load(1, XDATA, add(CFA_XSP16, literal(-7)))
        CFI (cfiCond19) R7 load(1, XDATA, add(CFA_XSP16, literal(-6)))
        CFI (cfiCond19) ?RET_LOW load(1, XDATA, add(CFA_XSP16, literal(-5)))
        CFI (cfiCond19) ?RET_HIGH load(1, XDATA, add(CFA_XSP16, literal(-4)))
        CFI (cfiCond19) ?BRET_EXT load(1, XDATA, add(CFA_XSP16, literal(-3)))
        CFI (cfiCond19) DPL0 load(1, XDATA, add(CFA_XSP16, literal(-2)))
        CFI (cfiCond19) DPH0 load(1, XDATA, add(CFA_XSP16, literal(-1)))
        CFI (cfiCond19) CFA_SP SP+0
        CFI (cfiCond19) CFA_XSP16 add(XSP16, 18)
        CFI Block cfiCond20 Using cfiCommon0
        CFI (cfiCond20) NoFunction
        CFI (cfiCond20) Conditional ??CrossCallReturnLabel_13, ??CrossCallReturnLabel_5
        CFI (cfiCond20) R6 load(1, XDATA, add(CFA_XSP16, literal(-18)))
        CFI (cfiCond20) VB load(1, XDATA, add(CFA_XSP16, literal(-17)))
        CFI (cfiCond20) V0 load(1, XDATA, add(CFA_XSP16, literal(-16)))
        CFI (cfiCond20) V1 load(1, XDATA, add(CFA_XSP16, literal(-15)))
        CFI (cfiCond20) V2 load(1, XDATA, add(CFA_XSP16, literal(-14)))
        CFI (cfiCond20) V3 load(1, XDATA, add(CFA_XSP16, literal(-13)))
        CFI (cfiCond20) V4 load(1, XDATA, add(CFA_XSP16, literal(-12)))
        CFI (cfiCond20) V5 load(1, XDATA, add(CFA_XSP16, literal(-11)))
        CFI (cfiCond20) V6 load(1, XDATA, add(CFA_XSP16, literal(-10)))
        CFI (cfiCond20) V7 load(1, XDATA, add(CFA_XSP16, literal(-9)))
        CFI (cfiCond20) V8 load(1, XDATA, add(CFA_XSP16, literal(-8)))
        CFI (cfiCond20) V9 load(1, XDATA, add(CFA_XSP16, literal(-7)))
        CFI (cfiCond20) R7 load(1, XDATA, add(CFA_XSP16, literal(-6)))
        CFI (cfiCond20) ?RET_LOW load(1, XDATA, add(CFA_XSP16, literal(-5)))
        CFI (cfiCond20) ?RET_HIGH load(1, XDATA, add(CFA_XSP16, literal(-4)))
        CFI (cfiCond20) ?BRET_EXT load(1, XDATA, add(CFA_XSP16, literal(-3)))
        CFI (cfiCond20) DPL0 load(1, XDATA, add(CFA_XSP16, literal(-2)))
        CFI (cfiCond20) DPH0 load(1, XDATA, add(CFA_XSP16, literal(-1)))
        CFI (cfiCond20) CFA_SP SP+0
        CFI (cfiCond20) CFA_XSP16 add(XSP16, 18)
        CFI Block cfiPicker21 Using cfiCommon1
        CFI (cfiPicker21) NoFunction
        CFI (cfiPicker21) Picker
        MOV     R2,?V0 + 6
        MOV     R3,?V0 + 7
        LCALL   ??printchar?relay
        MOV     A,?V0 + 0
        ADD     A,#0x1
        MOV     ?V0 + 0,A
        MOV     A,?V0 + 1
        ADDC    A,#0x0
        MOV     ?V0 + 1,A
        RET
        CFI EndBlock cfiCond18
        CFI EndBlock cfiCond19
        CFI EndBlock cfiCond20
        CFI EndBlock cfiPicker21
//   81 
//   82 /* the following should be enough for 16 bit int */
//   83 #define PRINT_BUF_LEN 6
//   84 // big buffer for uint32
//   85 //#define PRINT_BUF_LEN 10
//   86 

        RSEG BANKED_CODE:CODE:NOROOT(0)
//   87 static int printi(char **out, int i, int b, int sg, int width, int pad, int letbase)
printi:
        CFI Block cfiBlock22 Using cfiCommon0
        CFI Function printi
        CODE
//   88 {
        FUNCALL printi, prints
        LOCFRAME ISTACK, 0, STACK
        LOCFRAME PSTACK, 0, STACK
        LOCFRAME XSTACK, 34, STACK
        LOCFRAME IOVERLAY, 0, STATIC
        LOCFRAME DOVERLAY, 0, STATIC
        ARGFRAME ISTACK, 0, STACK
        ARGFRAME PSTACK, 0, STACK
        ARGFRAME XSTACK, 34, STACK
        ARGFRAME IOVERLAY, 0, STATIC
        ARGFRAME DOVERLAY, 0, STATIC
        FUNCALL printi, printchar
        LOCFRAME ISTACK, 0, STACK
        LOCFRAME PSTACK, 0, STACK
        LOCFRAME XSTACK, 30, STACK
        LOCFRAME IOVERLAY, 0, STATIC
        LOCFRAME DOVERLAY, 0, STATIC
        ARGFRAME ISTACK, 0, STACK
        ARGFRAME PSTACK, 0, STACK
        ARGFRAME XSTACK, 30, STACK
        ARGFRAME IOVERLAY, 0, STATIC
        ARGFRAME DOVERLAY, 0, STATIC
        FUNCALL printi, prints
        LOCFRAME ISTACK, 0, STACK
        LOCFRAME PSTACK, 0, STACK
        LOCFRAME XSTACK, 34, STACK
        LOCFRAME IOVERLAY, 0, STATIC
        LOCFRAME DOVERLAY, 0, STATIC
        ARGFRAME ISTACK, 0, STACK
        ARGFRAME PSTACK, 0, STACK
        ARGFRAME XSTACK, 34, STACK
        ARGFRAME IOVERLAY, 0, STATIC
        ARGFRAME DOVERLAY, 0, STATIC
        MOV     A,#-0x18
        LCALL   ?BANKED_ENTER_XDATA
        CFI DPH0 load(1, XDATA, add(CFA_XSP16, literal(-1)))
        CFI DPL0 load(1, XDATA, add(CFA_XSP16, literal(-2)))
        CFI ?BRET_EXT load(1, XDATA, add(CFA_XSP16, literal(-3)))
        CFI ?RET_HIGH load(1, XDATA, add(CFA_XSP16, literal(-4)))
        CFI ?RET_LOW load(1, XDATA, add(CFA_XSP16, literal(-5)))
        CFI R7 load(1, XDATA, add(CFA_XSP16, literal(-6)))
        CFI V15 load(1, XDATA, add(CFA_XSP16, literal(-7)))
        CFI V14 load(1, XDATA, add(CFA_XSP16, literal(-8)))
        CFI V13 load(1, XDATA, add(CFA_XSP16, literal(-9)))
        CFI V12 load(1, XDATA, add(CFA_XSP16, literal(-10)))
        CFI V11 load(1, XDATA, add(CFA_XSP16, literal(-11)))
        CFI V10 load(1, XDATA, add(CFA_XSP16, literal(-12)))
        CFI V9 load(1, XDATA, add(CFA_XSP16, literal(-13)))
        CFI V8 load(1, XDATA, add(CFA_XSP16, literal(-14)))
        CFI V7 load(1, XDATA, add(CFA_XSP16, literal(-15)))
        CFI V6 load(1, XDATA, add(CFA_XSP16, literal(-16)))
        CFI V5 load(1, XDATA, add(CFA_XSP16, literal(-17)))
        CFI V4 load(1, XDATA, add(CFA_XSP16, literal(-18)))
        CFI V3 load(1, XDATA, add(CFA_XSP16, literal(-19)))
        CFI V2 load(1, XDATA, add(CFA_XSP16, literal(-20)))
        CFI V1 load(1, XDATA, add(CFA_XSP16, literal(-21)))
        CFI V0 load(1, XDATA, add(CFA_XSP16, literal(-22)))
        CFI VB load(1, XDATA, add(CFA_XSP16, literal(-23)))
        CFI R6 load(1, XDATA, add(CFA_XSP16, literal(-24)))
        CFI CFA_SP SP+0
        CFI CFA_XSP16 add(XSP16, 24)
        ; Saved register size: 24
        ; Auto size: 6
        MOV     A,#-0x6
        LCALL   ?ALLOC_XSTACK8
        CFI CFA_XSP16 add(XSP16, 30)
        MOV     ?V0 + 14,R2
        MOV     ?V0 + 15,R3
        MOV     A,R4
        MOV     R0,A
        MOV     A,R5
        MOV     R1,A
        MOV     A,#0x1e
        LCALL   ?XSTACK_DISP0_8
        MOVX    A,@DPTR
        MOV     ?V0 + 6,A
        INC     DPTR
        MOVX    A,@DPTR
        MOV     ?V0 + 7,A
        MOV     A,#0x20
        LCALL   ?XSTACK_DISP0_8
        MOVX    A,@DPTR
        MOV     R2,A
        INC     DPTR
        MOVX    A,@DPTR
        MOV     R3,A
        MOV     A,#0x22
        LCALL   ?XSTACK_DISP0_8
        MOVX    A,@DPTR
        MOV     ?V0 + 0,A
        INC     DPTR
        MOVX    A,@DPTR
        MOV     ?V0 + 1,A
        MOV     A,#0x24
        LCALL   ?XSTACK_DISP0_8
        MOVX    A,@DPTR
        MOV     R6,A
        INC     DPTR
        MOVX    A,@DPTR
        MOV     R7,A
        MOV     A,#0x26
        LCALL   ?XSTACK_DISP0_8
        MOVX    A,@DPTR
        MOV     ?V0 + 12,A
//   89 	char print_buf[PRINT_BUF_LEN];
//   90 	register char *s;
//   91 	register int t, neg = 0, pc = 0;
        MOV     ?V0 + 8,#0x0
        MOV     ?V0 + 4,#0x0
//   92 	register unsigned int u = i;
//   93 
//   94 	if (i == 0) {
        MOV     A,R0
        ORL     A,R1
        JNZ     ??printi_0
//   95 		print_buf[0] = '0';
        MOV     DPL,?XSP + 0
        MOV     DPH,?XSP + 1
        MOV     A,#0x30
        MOVX    @DPTR,A
//   96 		print_buf[1] = '\0';
        MOV     A,#0x1
        LCALL   ?XSTACK_DISP0_8
        CLR     A
        MOVX    @DPTR,A
//   97 		return prints (out, print_buf, width, pad);
        ; Setup parameters for call to function prints
        MOV     ?V0 + 2,R6
        MOV     ?V0 + 3,R7
        MOV     R0,#?V0 + 2
        LCALL   ?PUSH_XSTACK_I_TWO
        CFI CFA_XSP16 add(XSP16, 32)
        MOV     R0,#?V0 + 0
        LCALL   ?PUSH_XSTACK_I_TWO
        CFI CFA_XSP16 add(XSP16, 34)
        MOV     A,#0x4
        LCALL   ?XSTACK_DISP0_8
        MOV     R4,DPL
        MOV     R5,DPH
        MOV     R2,?V0 + 14
        MOV     R3,?V0 + 15
        LCALL   ??prints?relay
        MOV     A,#0x4
        LCALL   ?DEALLOC_XSTACK8
        CFI CFA_XSP16 add(XSP16, 30)
        LJMP    ??printi_1 & 0xFFFF
//   98 	}
//   99 
//  100 	if (sg && b == 10 && i < 0) {
??printi_0:
        MOV     A,R2
        ORL     A,R3
        JZ      ??printi_2
        MOV     A,#0xa
        XRL     A,?V0 + 6
        JNZ     ??printi_3
        MOV     A,?V0 + 7
??printi_3:
        JNZ     ??printi_2
        CLR     C
        MOV     A,R1
        LCALL   ?Subroutine11 & 0xFFFF
??CrossCallReturnLabel_14:
        JNC     ??printi_2
//  101 		neg = 1;
        MOV     ?V0 + 8,#0x1
//  102 		u = -i;
        CLR     C
        CLR     A
        SUBB    A,R0
        MOV     R4,A
        CLR     A
        SUBB    A,R1
        MOV     R5,A
//  103 	}
//  104 
//  105 	s = print_buf + PRINT_BUF_LEN-1;
??printi_2:
        MOV     A,#0x5
        LCALL   ?XSTACK_DISP0_8
        MOV     ?V0 + 2,DPL
        MOV     ?V0 + 3,DPH
//  106 	*s = '\0';
        CLR     A
        MOVX    @DPTR,A
        SJMP    ??printi_4
//  107 
//  108 	while (u) {
//  109 		t = u % b;
??printi_5:
        MOV     A,R4
        MOV     R0,A
        MOV     A,R5
        MOV     R1,A
        MOV     R2,?V0 + 6
        MOV     R3,?V0 + 7
        LCALL   ?US_DIV_MOD
        MOV     ?V0 + 2,R2
        MOV     R0,?V0 + 2
//  110 		if( t >= 10 )
        MOV     A,R0
        SUBB    A,#0xa
        MOV     A,R3
        LCALL   ?Subroutine11 & 0xFFFF
??CrossCallReturnLabel_15:
        JC      ??printi_6
//  111 			t += letbase - '0' - 10;
        MOV     A,?V0 + 12
        ADD     A,#-0x3a
        MOV     R2,A
        MOV     A,R0
        ADD     A,R2
        MOV     R0,A
//  112 		*--s = t + '0';
??printi_6:
        MOV     ?V0 + 2,DPL
        MOV     ?V0 + 3,DPH
        MOV     A,R0
        ADD     A,#0x30
        MOVX    @DPTR,A
//  113 		u /= b;
        MOV     A,R4
        MOV     R0,A
        MOV     A,R5
        MOV     R1,A
        MOV     R2,?V0 + 6
        MOV     R3,?V0 + 7
        LCALL   ?US_DIV_MOD
        MOV     ?V0 + 10,R0
        MOV     ?V0 + 11,R1
        MOV     R4,?V0 + 10
        MOV     R5,?V0 + 11
//  114 	}
??printi_4:
        MOV     A,?V0 + 2
        ADD     A,#-0x1
        MOV     DPL,A
        MOV     A,?V0 + 3
        ADDC    A,#-0x1
        MOV     DPH,A
        MOV     A,R4
        ORL     A,R5
        JNZ     ??printi_5
//  115 
//  116 	if (neg) {
        MOV     A,?V0 + 8
        MOV     C,0xE0 /* A   */.0
        JNC     ??printi_7
//  117 		if( width && (pad & PAD_ZERO) ) {
        MOV     A,?V0 + 0
        ORL     A,?V0 + 1
        JZ      ??printi_8
        MOV     A,R6
        ANL     A,#0x2
        JZ      ??printi_8
//  118 			printchar (out, '-');
        ; Setup parameters for call to function printchar
        MOV     R4,#0x2d
        MOV     R5,#0x0
        MOV     R2,?V0 + 14
        MOV     R3,?V0 + 15
        LCALL   ??printchar?relay
//  119 			++pc;
        MOV     ?V0 + 4,#0x1
//  120 			--width;
        MOV     A,?V0 + 0
        ADD     A,#-0x1
        MOV     ?V0 + 0,A
        MOV     A,?V0 + 1
        ADDC    A,#-0x1
        MOV     ?V0 + 1,A
        SJMP    ??printi_7
//  121 		}
//  122 		else {
//  123 			*--s = '-';
??printi_8:
        MOV     ?V0 + 2,DPL
        MOV     ?V0 + 3,DPH
        MOV     A,#0x2d
        MOVX    @DPTR,A
//  124 		}
//  125 	}
//  126 
//  127 	return pc + prints (out, s, width, pad);
??printi_7:
        ; Setup parameters for call to function prints
        MOV     ?V0 + 6,R6
        MOV     ?V0 + 7,R7
        MOV     R0,#?V0 + 6
        LCALL   ?PUSH_XSTACK_I_TWO
        CFI CFA_XSP16 add(XSP16, 32)
        MOV     R0,#?V0 + 0
        LCALL   ?PUSH_XSTACK_I_TWO
        CFI CFA_XSP16 add(XSP16, 34)
        MOV     R4,?V0 + 2
        MOV     R5,?V0 + 3
        MOV     R2,?V0 + 14
        MOV     R3,?V0 + 15
        LCALL   ??prints?relay
        MOV     A,#0x4
        LCALL   ?DEALLOC_XSTACK8
        CFI CFA_XSP16 add(XSP16, 30)
        MOV     ?V0 + 0,R2
        MOV     ?V0 + 1,R3
        MOV     A,?V0 + 4
        ADD     A,?V0 + 0
        MOV     R2,A
        CLR     A
        ADDC    A,?V0 + 1
        MOV     R3,A
??printi_1:
        MOV     A,#0x6
        LCALL   ?DEALLOC_XSTACK8
        CFI CFA_XSP16 add(XSP16, 24)
        MOV     R7,#0x10
        LJMP    ?BANKED_LEAVE_XDATA
        CFI EndBlock cfiBlock22
//  128 }
//  129 

        RSEG BANKED_CODE:CODE:NOROOT(0)
//  130 static int print(char **out, const char *format, va_list args )
print:
        CFI Block cfiBlock23 Using cfiCommon0
        CFI Function print
        CODE
//  131 {
        FUNCALL print, printchar
        LOCFRAME ISTACK, 0, STACK
        LOCFRAME PSTACK, 0, STACK
        LOCFRAME XSTACK, 20, STACK
        LOCFRAME IOVERLAY, 0, STATIC
        LOCFRAME DOVERLAY, 0, STATIC
        ARGFRAME ISTACK, 0, STACK
        ARGFRAME PSTACK, 0, STACK
        ARGFRAME XSTACK, 20, STACK
        ARGFRAME IOVERLAY, 0, STATIC
        ARGFRAME DOVERLAY, 0, STATIC
        FUNCALL print, prints
        LOCFRAME ISTACK, 0, STACK
        LOCFRAME PSTACK, 0, STACK
        LOCFRAME XSTACK, 24, STACK
        LOCFRAME IOVERLAY, 0, STATIC
        LOCFRAME DOVERLAY, 0, STATIC
        ARGFRAME ISTACK, 0, STACK
        ARGFRAME PSTACK, 0, STACK
        ARGFRAME XSTACK, 24, STACK
        ARGFRAME IOVERLAY, 0, STATIC
        ARGFRAME DOVERLAY, 0, STATIC
        FUNCALL print, printi
        LOCFRAME ISTACK, 0, STACK
        LOCFRAME PSTACK, 0, STACK
        LOCFRAME XSTACK, 30, STACK
        LOCFRAME IOVERLAY, 0, STATIC
        LOCFRAME DOVERLAY, 0, STATIC
        ARGFRAME ISTACK, 0, STACK
        ARGFRAME PSTACK, 0, STACK
        ARGFRAME XSTACK, 30, STACK
        ARGFRAME IOVERLAY, 0, STATIC
        ARGFRAME DOVERLAY, 0, STATIC
        FUNCALL print, printi
        LOCFRAME ISTACK, 0, STACK
        LOCFRAME PSTACK, 0, STACK
        LOCFRAME XSTACK, 30, STACK
        LOCFRAME IOVERLAY, 0, STATIC
        LOCFRAME DOVERLAY, 0, STATIC
        ARGFRAME ISTACK, 0, STACK
        ARGFRAME PSTACK, 0, STACK
        ARGFRAME XSTACK, 30, STACK
        ARGFRAME IOVERLAY, 0, STATIC
        ARGFRAME DOVERLAY, 0, STATIC
        FUNCALL print, printi
        LOCFRAME ISTACK, 0, STACK
        LOCFRAME PSTACK, 0, STACK
        LOCFRAME XSTACK, 30, STACK
        LOCFRAME IOVERLAY, 0, STATIC
        LOCFRAME DOVERLAY, 0, STATIC
        ARGFRAME ISTACK, 0, STACK
        ARGFRAME PSTACK, 0, STACK
        ARGFRAME XSTACK, 30, STACK
        ARGFRAME IOVERLAY, 0, STATIC
        ARGFRAME DOVERLAY, 0, STATIC
        FUNCALL print, printi
        LOCFRAME ISTACK, 0, STACK
        LOCFRAME PSTACK, 0, STACK
        LOCFRAME XSTACK, 30, STACK
        LOCFRAME IOVERLAY, 0, STATIC
        LOCFRAME DOVERLAY, 0, STATIC
        ARGFRAME ISTACK, 0, STACK
        ARGFRAME PSTACK, 0, STACK
        ARGFRAME XSTACK, 30, STACK
        ARGFRAME IOVERLAY, 0, STATIC
        ARGFRAME DOVERLAY, 0, STATIC
        FUNCALL print, prints
        LOCFRAME ISTACK, 0, STACK
        LOCFRAME PSTACK, 0, STACK
        LOCFRAME XSTACK, 24, STACK
        LOCFRAME IOVERLAY, 0, STATIC
        LOCFRAME DOVERLAY, 0, STATIC
        ARGFRAME ISTACK, 0, STACK
        ARGFRAME PSTACK, 0, STACK
        ARGFRAME XSTACK, 24, STACK
        ARGFRAME IOVERLAY, 0, STATIC
        ARGFRAME DOVERLAY, 0, STATIC
        MOV     A,#-0x12
        LCALL   ?BANKED_ENTER_XDATA
        CFI DPH0 load(1, XDATA, add(CFA_XSP16, literal(-1)))
        CFI DPL0 load(1, XDATA, add(CFA_XSP16, literal(-2)))
        CFI ?BRET_EXT load(1, XDATA, add(CFA_XSP16, literal(-3)))
        CFI ?RET_HIGH load(1, XDATA, add(CFA_XSP16, literal(-4)))
        CFI ?RET_LOW load(1, XDATA, add(CFA_XSP16, literal(-5)))
        CFI R7 load(1, XDATA, add(CFA_XSP16, literal(-6)))
        CFI V9 load(1, XDATA, add(CFA_XSP16, literal(-7)))
        CFI V8 load(1, XDATA, add(CFA_XSP16, literal(-8)))
        CFI V7 load(1, XDATA, add(CFA_XSP16, literal(-9)))
        CFI V6 load(1, XDATA, add(CFA_XSP16, literal(-10)))
        CFI V5 load(1, XDATA, add(CFA_XSP16, literal(-11)))
        CFI V4 load(1, XDATA, add(CFA_XSP16, literal(-12)))
        CFI V3 load(1, XDATA, add(CFA_XSP16, literal(-13)))
        CFI V2 load(1, XDATA, add(CFA_XSP16, literal(-14)))
        CFI V1 load(1, XDATA, add(CFA_XSP16, literal(-15)))
        CFI V0 load(1, XDATA, add(CFA_XSP16, literal(-16)))
        CFI VB load(1, XDATA, add(CFA_XSP16, literal(-17)))
        CFI R6 load(1, XDATA, add(CFA_XSP16, literal(-18)))
        CFI CFA_SP SP+0
        CFI CFA_XSP16 add(XSP16, 18)
        ; Saved register size: 18
        ; Auto size: 2
        MOV     A,#-0x2
        LCALL   ?ALLOC_XSTACK8
        CFI CFA_XSP16 add(XSP16, 20)
        MOV     A,R2
        MOV     R6,A
        MOV     A,R3
        MOV     R7,A
        MOV     ?V0 + 0,R4
        MOV     ?V0 + 1,R5
        MOV     A,#0x14
        LCALL   ?XSTACK_DISP0_8
        MOVX    A,@DPTR
        MOV     ?V0 + 4,A
        INC     DPTR
        MOVX    A,@DPTR
        MOV     ?V0 + 5,A
//  132 	register int width, pad;
//  133 	register int pc = 0;
        MOV     ?V0 + 2,#0x0
        MOV     ?V0 + 3,#0x0
        SJMP    ??print_0
//  134 	char scr[2];
//  135 
//  136 	for (; *format != 0; ++format) {
//  137 		if (*format == '%') {
//  138 			++format;
//  139 			width = pad = 0;
//  140 			if (*format == '\0') break;
//  141 			if (*format == '%') goto out;
//  142 			if (*format == '-') {
//  143 				++format;
//  144 				pad = PAD_RIGHT;
//  145 			}
//  146 			while (*format == '0') {
//  147 				++format;
//  148 				pad |= PAD_ZERO;
//  149 			}
//  150 			for ( ; *format >= '0' && *format <= '9'; ++format) {
//  151 				width *= 10;
//  152 				width += *format - '0';
//  153 			}
//  154 			if( *format == 's' ) {
//  155 				register char *s = (char *)va_arg( args, int );
//  156 				pc += prints (out, s?s:"(null)", width, pad);
//  157 				continue;
//  158 			}
//  159 			if( *format == 'd' ) {
//  160 				pc += printi (out, va_arg( args, int ), 10, 1, width, pad, 'a');
//  161 				continue;
//  162 			}
//  163 			if( *format == 'x' ) {
//  164 				pc += printi (out, va_arg( args, int ), 16, 0, width, pad, 'a');
//  165 				continue;
//  166 			}
//  167 			if( *format == 'X' ) {
//  168 				pc += printi (out, va_arg( args, int ), 16, 0, width, pad, 'A');
//  169 				continue;
//  170 			}
//  171 			if( *format == 'u' ) {
//  172 				pc += printi (out, va_arg( args, int ), 10, 0, width, pad, 'a');
//  173 				continue;
//  174 			}
//  175 			if( *format == 'c' ) {
//  176 				/* char are converted to int then pushed on the stack */
//  177 				scr[0] = (char)va_arg( args, int );
//  178 				scr[1] = '\0';
//  179 				pc += prints (out, scr, width, pad);
//  180 				continue;
//  181 			}
//  182 		}
//  183 		else {
//  184 		out:
//  185 			printchar (out, *format);
??print_1:
        ; Setup parameters for call to function printchar
        MOV     DPL,?V0 + 0
        MOV     DPH,?V0 + 1
        MOVX    A,@DPTR
        MOV     R4,A
        MOV     R5,#0x0
        MOV     A,R6
        MOV     R2,A
        MOV     A,R7
        MOV     R3,A
        LCALL   ??printchar?relay
//  186 			++pc;
        MOV     A,?V0 + 2
        ADD     A,#0x1
        MOV     ?V0 + 2,A
        MOV     A,?V0 + 3
        ADDC    A,#0x0
??print_2:
        MOV     ?V0 + 3,A
//  187 		}
??print_3:
        MOV     DPL,?V0 + 0
        MOV     DPH,?V0 + 1
        INC     DPTR
        MOV     ?V0 + 0,DPL
        MOV     ?V0 + 1,DPH
??print_0:
        MOV     DPL,?V0 + 0
        MOV     DPH,?V0 + 1
        MOVX    A,@DPTR
        MOV     R0,A
        JNZ     $+5
        LJMP    ??print_4 & 0xFFFF
        MOV     A,#0x25
        XRL     A,R0
        JNZ     ??print_1
        INC     DPTR
        MOV     ?V0 + 0,DPL
        MOV     ?V0 + 1,DPH
        MOV     R4,#0x0
        MOV     R5,#0x0
        MOV     R2,#0x0
        MOV     R3,#0x0
        MOVX    A,@DPTR
        MOV     R0,A
        JNZ     $+5
        LJMP    ??print_4 & 0xFFFF
        MOV     A,#0x25
        XRL     A,R0
        JZ      ??print_1
        MOV     A,#0x2d
        XRL     A,R0
        JNZ     ??print_5
        INC     DPTR
        MOV     ?V0 + 0,DPL
        MOV     ?V0 + 1,DPH
        INC     R4
        SJMP    ??print_5
??print_6:
        INC     DPTR
        MOV     ?V0 + 0,DPL
        MOV     ?V0 + 1,DPH
        MOV     A,#0x2
        ORL     A,R4
        MOV     R4,A
??print_5:
        MOV     DPL,?V0 + 0
        MOV     DPH,?V0 + 1
        MOVX    A,@DPTR
        XRL     A,#0x30
        JZ      ??print_6
??print_7:
        MOV     DPL,?V0 + 0
        MOV     DPH,?V0 + 1
        MOVX    A,@DPTR
        MOV     ?V0 + 6,A
        MOV     A,#-0x30
        ADD     A,?V0 + 6
        CLR     C
        SUBB    A,#0xa
        JNC     ??print_8
        MOV     A,R2
        MOV     B,#0xa
        MUL     AB
        MOV     R2,A
        MOV     R0,B
        MOV     B,#0xa
        MOV     A,R3
        MUL     AB
        ADD     A,R0
        MOV     R3,A
        MOV     A,?V0 + 6
        ADD     A,R2
        MOV     R0,A
        CLR     A
        ADDC    A,R3
        MOV     R1,A
        MOV     A,R0
        ADD     A,#-0x30
        MOV     R2,A
        MOV     A,R1
        ADDC    A,#-0x1
        MOV     R3,A
        INC     DPTR
        MOV     ?V0 + 0,DPL
        MOV     ?V0 + 1,DPH
        SJMP    ??print_7
??print_8:
        MOVX    A,@DPTR
        MOV     R0,A
        MOV     A,#0x73
        XRL     A,R0
        JNZ     ??print_9
        MOV     DPL,?V0 + 4
        MOV     DPH,?V0 + 5
        MOVX    A,@DPTR
        MOV     R0,A
        INC     DPTR
        MOVX    A,@DPTR
        MOV     R1,A
        MOV     DPL,R0
        MOV     DPH,R1
        MOVX    A,@DPTR
        MOV     ?V0 + 6,A
        INC     DPTR
        MOVX    A,@DPTR
        MOV     ?V0 + 7,A
        LCALL   ??Subroutine13_0 & 0xFFFF
??CrossCallReturnLabel_20:
        MOV     A,?V0 + 6
        ORL     A,?V0 + 7
        JNZ     ??print_10
        MOV     ?V0 + 6,#`?<Constant "(null)">` & 0xff
        MOV     ?V0 + 7,#(`?<Constant "(null)">` >> 8) & 0xff
??print_10:
        ; Setup parameters for call to function prints
        MOV     ?V0 + 8,R4
        MOV     ?V0 + 9,R5
        MOV     R0,#?V0 + 8
        LCALL   ?PUSH_XSTACK_I_TWO
        CFI CFA_XSP16 add(XSP16, 22)
        MOV     ?V0 + 8,R2
        MOV     ?V0 + 9,R3
        MOV     R0,#?V0 + 8
        LCALL   ?PUSH_XSTACK_I_TWO
        CFI CFA_XSP16 add(XSP16, 24)
        MOV     R4,?V0 + 6
        MOV     R5,?V0 + 7
??print_11:
        MOV     A,R6
        MOV     R2,A
        MOV     A,R7
        MOV     R3,A
        LCALL   ??prints?relay
        MOV     A,#0x4
        LCALL   ?DEALLOC_XSTACK8
        CFI CFA_XSP16 add(XSP16, 20)
??print_12:
        MOV     ?V0 + 6,R2
        MOV     ?V0 + 7,R3
        MOV     A,?V0 + 2
        ADD     A,?V0 + 6
        MOV     ?V0 + 2,A
        MOV     A,?V0 + 3
        ADDC    A,?V0 + 7
        LJMP    ??print_2 & 0xFFFF
??print_9:
        MOV     A,#0x64
        XRL     A,R0
        JNZ     ??print_13
        LCALL   ?Subroutine3 & 0xFFFF
??CrossCallReturnLabel_0:
        LCALL   ?PUSH_XSTACK_I_TWO
        CFI CFA_XSP16 add(XSP16, 22)
        MOV     ?V0 + 8,R4
        MOV     R0,#?V0 + 8
        LCALL   ?PUSH_XSTACK_I_TWO
        CFI CFA_XSP16 add(XSP16, 24)
        MOV     ?V0 + 8,R2
        MOV     ?V0 + 9,R3
        MOV     R0,#?V0 + 8
        LCALL   ?PUSH_XSTACK_I_TWO
        CFI CFA_XSP16 add(XSP16, 26)
        MOV     ?V0 + 8,#0x1
        MOV     ?V0 + 9,R5
??print_14:
        MOV     R0,#?V0 + 8
        LCALL   ?PUSH_XSTACK_I_TWO
        CFI CFA_XSP16 add(XSP16, 28)
        MOV     ?V0 + 8,#0xa
??print_15:
        MOV     R0,#?V0 + 8
        LCALL   ?PUSH_XSTACK_I_TWO
        CFI CFA_XSP16 add(XSP16, 30)
        MOV     DPL,?V0 + 6
        MOV     DPH,?V0 + 7
        MOVX    A,@DPTR
        MOV     R4,A
        INC     DPTR
        MOVX    A,@DPTR
        MOV     R5,A
        MOV     A,R6
        MOV     R2,A
        MOV     A,R7
        MOV     R3,A
        LCALL   ??printi?relay
        MOV     A,#0xa
        LCALL   ?DEALLOC_XSTACK8
        CFI CFA_XSP16 add(XSP16, 20)
        SJMP    ??print_12
??print_13:
        MOV     A,#0x78
        XRL     A,R0
        JNZ     ??print_16
        LCALL   ?Subroutine4 & 0xFFFF
??CrossCallReturnLabel_21:
        ; Setup parameters for call to function printi
        MOV     ?V0 + 8,#0x61
??print_17:
        MOV     ?V0 + 9,R5
        MOV     R0,#?V0 + 8
        LCALL   ?PUSH_XSTACK_I_TWO
        CFI CFA_XSP16 add(XSP16, 22)
        MOV     ?V0 + 8,R4
        MOV     R0,#?V0 + 8
        LCALL   ?PUSH_XSTACK_I_TWO
        CFI CFA_XSP16 add(XSP16, 24)
        MOV     ?V0 + 8,R2
        MOV     ?V0 + 9,R3
        MOV     R0,#?V0 + 8
        LCALL   ?PUSH_XSTACK_I_TWO
        CFI CFA_XSP16 add(XSP16, 26)
        CLR     A
        MOV     ?V0 + 8,A
        MOV     ?V0 + 9,A
        MOV     R0,#?V0 + 8
        LCALL   ?PUSH_XSTACK_I_TWO
        CFI CFA_XSP16 add(XSP16, 28)
        MOV     ?V0 + 8,#0x10
        SJMP    ??print_15
        CFI CFA_XSP16 add(XSP16, 20)
??print_16:
        MOV     A,#0x58
        XRL     A,R0
        JNZ     ??print_18
        LCALL   ?Subroutine4 & 0xFFFF
??CrossCallReturnLabel_22:
        ; Setup parameters for call to function printi
        MOV     ?V0 + 8,#0x41
        SJMP    ??print_17
??print_18:
        MOV     A,#0x75
        XRL     A,R0
        JNZ     ??print_19
        LCALL   ?Subroutine3 & 0xFFFF
??CrossCallReturnLabel_1:
        LCALL   ?PUSH_XSTACK_I_TWO
        CFI CFA_XSP16 add(XSP16, 22)
        MOV     ?V0 + 8,R4
        MOV     R0,#?V0 + 8
        LCALL   ?PUSH_XSTACK_I_TWO
        CFI CFA_XSP16 add(XSP16, 24)
        MOV     ?V0 + 8,R2
        MOV     ?V0 + 9,R3
        MOV     R0,#?V0 + 8
        LCALL   ?PUSH_XSTACK_I_TWO
        CFI CFA_XSP16 add(XSP16, 26)
        CLR     A
        MOV     ?V0 + 8,A
        MOV     ?V0 + 9,A
        LJMP    ??print_14 & 0xFFFF
        CFI CFA_XSP16 add(XSP16, 20)
??print_19:
        MOV     A,#0x63
        XRL     A,R0
        JZ      $+5
        LJMP    ??print_3 & 0xFFFF
        MOV     DPL,?V0 + 4
        MOV     DPH,?V0 + 5
        LCALL   ?Subroutine8 & 0xFFFF
??CrossCallReturnLabel_10:
        MOVX    A,@DPTR
        MOV     DPL,?XSP + 0
        MOV     DPH,?XSP + 1
        MOVX    @DPTR,A
        MOV     DPL,?V0 + 4
        MOV     DPH,?V0 + 5
        MOVX    A,@DPTR
        ADD     A,#0x2
        MOV     R0,A
        INC     DPTR
        MOVX    A,@DPTR
        LCALL   ??Subroutine14_0 & 0xFFFF
??CrossCallReturnLabel_19:
        MOV     A,#0x1
        LCALL   ?XSTACK_DISP0_8
        CLR     A
        MOVX    @DPTR,A
        ; Setup parameters for call to function prints
        MOV     ?V0 + 6,R4
        MOV     ?V0 + 7,R5
        MOV     R0,#?V0 + 6
        LCALL   ?PUSH_XSTACK_I_TWO
        CFI CFA_XSP16 add(XSP16, 22)
        MOV     ?V0 + 6,R2
        MOV     ?V0 + 7,R3
        MOV     R0,#?V0 + 6
        LCALL   ?PUSH_XSTACK_I_TWO
        CFI CFA_XSP16 add(XSP16, 24)
        MOV     A,#0x4
        LCALL   ?XSTACK_DISP0_8
        MOV     R4,DPL
        MOV     R5,DPH
        LJMP    ??print_11 & 0xFFFF
        CFI CFA_XSP16 add(XSP16, 20)
//  188 	}
//  189 	if (out) **out = '\0';
??print_4:
        MOV     A,R6
        ORL     A,R7
        JZ      ??print_20
        MOV     DPL,R6
        MOV     DPH,R7
        LCALL   ?Subroutine8 & 0xFFFF
??CrossCallReturnLabel_11:
        CLR     A
        MOVX    @DPTR,A
//  190 	va_end( args );
//  191 	return pc;
??print_20:
        MOV     R2,?V0 + 2
        MOV     R3,?V0 + 3
        MOV     A,#0x2
        LCALL   ?DEALLOC_XSTACK8
        CFI CFA_XSP16 add(XSP16, 18)
        LJMP    ?Subroutine1 & 0xFFFF
        CFI EndBlock cfiBlock23
//  192 }

        RSEG BANKED_CODE:CODE:NOROOT(0)
?Subroutine8:
        CFI Block cfiCond24 Using cfiCommon0
        CFI NoFunction
        CFI Conditional ??CrossCallReturnLabel_9
        CFI DPL0 Frame(CFA_SP, 4)
        CFI DPH0 Frame(CFA_SP, 5)
        CFI CFA_SP SP+-5
        CFI Block cfiCond25 Using cfiCommon0
        CFI (cfiCond25) NoFunction
        CFI (cfiCond25) Conditional ??CrossCallReturnLabel_10
        CFI (cfiCond25) R6 load(1, XDATA, add(CFA_XSP16, literal(-18)))
        CFI (cfiCond25) VB load(1, XDATA, add(CFA_XSP16, literal(-17)))
        CFI (cfiCond25) V0 load(1, XDATA, add(CFA_XSP16, literal(-16)))
        CFI (cfiCond25) V1 load(1, XDATA, add(CFA_XSP16, literal(-15)))
        CFI (cfiCond25) V2 load(1, XDATA, add(CFA_XSP16, literal(-14)))
        CFI (cfiCond25) V3 load(1, XDATA, add(CFA_XSP16, literal(-13)))
        CFI (cfiCond25) V4 load(1, XDATA, add(CFA_XSP16, literal(-12)))
        CFI (cfiCond25) V5 load(1, XDATA, add(CFA_XSP16, literal(-11)))
        CFI (cfiCond25) V6 load(1, XDATA, add(CFA_XSP16, literal(-10)))
        CFI (cfiCond25) V7 load(1, XDATA, add(CFA_XSP16, literal(-9)))
        CFI (cfiCond25) V8 load(1, XDATA, add(CFA_XSP16, literal(-8)))
        CFI (cfiCond25) V9 load(1, XDATA, add(CFA_XSP16, literal(-7)))
        CFI (cfiCond25) R7 load(1, XDATA, add(CFA_XSP16, literal(-6)))
        CFI (cfiCond25) ?RET_LOW load(1, XDATA, add(CFA_XSP16, literal(-5)))
        CFI (cfiCond25) ?RET_HIGH load(1, XDATA, add(CFA_XSP16, literal(-4)))
        CFI (cfiCond25) ?BRET_EXT load(1, XDATA, add(CFA_XSP16, literal(-3)))
        CFI (cfiCond25) DPL0 load(1, XDATA, add(CFA_XSP16, literal(-2)))
        CFI (cfiCond25) DPH0 load(1, XDATA, add(CFA_XSP16, literal(-1)))
        CFI (cfiCond25) CFA_SP SP+0
        CFI (cfiCond25) CFA_XSP16 add(XSP16, 20)
        CFI Block cfiCond26 Using cfiCommon0
        CFI (cfiCond26) NoFunction
        CFI (cfiCond26) Conditional ??CrossCallReturnLabel_11
        CFI (cfiCond26) R6 load(1, XDATA, add(CFA_XSP16, literal(-18)))
        CFI (cfiCond26) VB load(1, XDATA, add(CFA_XSP16, literal(-17)))
        CFI (cfiCond26) V0 load(1, XDATA, add(CFA_XSP16, literal(-16)))
        CFI (cfiCond26) V1 load(1, XDATA, add(CFA_XSP16, literal(-15)))
        CFI (cfiCond26) V2 load(1, XDATA, add(CFA_XSP16, literal(-14)))
        CFI (cfiCond26) V3 load(1, XDATA, add(CFA_XSP16, literal(-13)))
        CFI (cfiCond26) V4 load(1, XDATA, add(CFA_XSP16, literal(-12)))
        CFI (cfiCond26) V5 load(1, XDATA, add(CFA_XSP16, literal(-11)))
        CFI (cfiCond26) V6 load(1, XDATA, add(CFA_XSP16, literal(-10)))
        CFI (cfiCond26) V7 load(1, XDATA, add(CFA_XSP16, literal(-9)))
        CFI (cfiCond26) V8 load(1, XDATA, add(CFA_XSP16, literal(-8)))
        CFI (cfiCond26) V9 load(1, XDATA, add(CFA_XSP16, literal(-7)))
        CFI (cfiCond26) R7 load(1, XDATA, add(CFA_XSP16, literal(-6)))
        CFI (cfiCond26) ?RET_LOW load(1, XDATA, add(CFA_XSP16, literal(-5)))
        CFI (cfiCond26) ?RET_HIGH load(1, XDATA, add(CFA_XSP16, literal(-4)))
        CFI (cfiCond26) ?BRET_EXT load(1, XDATA, add(CFA_XSP16, literal(-3)))
        CFI (cfiCond26) DPL0 load(1, XDATA, add(CFA_XSP16, literal(-2)))
        CFI (cfiCond26) DPH0 load(1, XDATA, add(CFA_XSP16, literal(-1)))
        CFI (cfiCond26) CFA_SP SP+0
        CFI (cfiCond26) CFA_XSP16 add(XSP16, 20)
        CFI Block cfiPicker27 Using cfiCommon1
        CFI (cfiPicker27) NoFunction
        CFI (cfiPicker27) Picker
        MOVX    A,@DPTR
        MOV     R0,A
        INC     DPTR
        MOVX    A,@DPTR
        MOV     DPH,A
        MOV     DPL,R0
        RET
        CFI EndBlock cfiCond24
        CFI EndBlock cfiCond25
        CFI EndBlock cfiCond26
        CFI EndBlock cfiPicker27

        RSEG BANKED_CODE:CODE:NOROOT(0)
?Subroutine4:
        CFI Block cfiCond28 Using cfiCommon0
        CFI NoFunction
        CFI Conditional ??CrossCallReturnLabel_21
        CFI R6 load(1, XDATA, add(CFA_XSP16, literal(-18)))
        CFI VB load(1, XDATA, add(CFA_XSP16, literal(-17)))
        CFI V0 load(1, XDATA, add(CFA_XSP16, literal(-16)))
        CFI V1 load(1, XDATA, add(CFA_XSP16, literal(-15)))
        CFI V2 load(1, XDATA, add(CFA_XSP16, literal(-14)))
        CFI V3 load(1, XDATA, add(CFA_XSP16, literal(-13)))
        CFI V4 load(1, XDATA, add(CFA_XSP16, literal(-12)))
        CFI V5 load(1, XDATA, add(CFA_XSP16, literal(-11)))
        CFI V6 load(1, XDATA, add(CFA_XSP16, literal(-10)))
        CFI V7 load(1, XDATA, add(CFA_XSP16, literal(-9)))
        CFI V8 load(1, XDATA, add(CFA_XSP16, literal(-8)))
        CFI V9 load(1, XDATA, add(CFA_XSP16, literal(-7)))
        CFI R7 load(1, XDATA, add(CFA_XSP16, literal(-6)))
        CFI ?RET_LOW load(1, XDATA, add(CFA_XSP16, literal(-5)))
        CFI ?RET_HIGH load(1, XDATA, add(CFA_XSP16, literal(-4)))
        CFI ?BRET_EXT load(1, XDATA, add(CFA_XSP16, literal(-3)))
        CFI DPL0 load(1, XDATA, add(CFA_XSP16, literal(-2)))
        CFI DPH0 load(1, XDATA, add(CFA_XSP16, literal(-1)))
        CFI CFA_SP SP+0
        CFI CFA_XSP16 add(XSP16, 20)
        CFI Block cfiCond29 Using cfiCommon0
        CFI (cfiCond29) NoFunction
        CFI (cfiCond29) Conditional ??CrossCallReturnLabel_22
        CFI (cfiCond29) R6 load(1, XDATA, add(CFA_XSP16, literal(-18)))
        CFI (cfiCond29) VB load(1, XDATA, add(CFA_XSP16, literal(-17)))
        CFI (cfiCond29) V0 load(1, XDATA, add(CFA_XSP16, literal(-16)))
        CFI (cfiCond29) V1 load(1, XDATA, add(CFA_XSP16, literal(-15)))
        CFI (cfiCond29) V2 load(1, XDATA, add(CFA_XSP16, literal(-14)))
        CFI (cfiCond29) V3 load(1, XDATA, add(CFA_XSP16, literal(-13)))
        CFI (cfiCond29) V4 load(1, XDATA, add(CFA_XSP16, literal(-12)))
        CFI (cfiCond29) V5 load(1, XDATA, add(CFA_XSP16, literal(-11)))
        CFI (cfiCond29) V6 load(1, XDATA, add(CFA_XSP16, literal(-10)))
        CFI (cfiCond29) V7 load(1, XDATA, add(CFA_XSP16, literal(-9)))
        CFI (cfiCond29) V8 load(1, XDATA, add(CFA_XSP16, literal(-8)))
        CFI (cfiCond29) V9 load(1, XDATA, add(CFA_XSP16, literal(-7)))
        CFI (cfiCond29) R7 load(1, XDATA, add(CFA_XSP16, literal(-6)))
        CFI (cfiCond29) ?RET_LOW load(1, XDATA, add(CFA_XSP16, literal(-5)))
        CFI (cfiCond29) ?RET_HIGH load(1, XDATA, add(CFA_XSP16, literal(-4)))
        CFI (cfiCond29) ?BRET_EXT load(1, XDATA, add(CFA_XSP16, literal(-3)))
        CFI (cfiCond29) DPL0 load(1, XDATA, add(CFA_XSP16, literal(-2)))
        CFI (cfiCond29) DPH0 load(1, XDATA, add(CFA_XSP16, literal(-1)))
        CFI (cfiCond29) CFA_SP SP+0
        CFI (cfiCond29) CFA_XSP16 add(XSP16, 20)
        CFI Block cfiPicker30 Using cfiCommon1
        CFI (cfiPicker30) NoFunction
        CFI (cfiPicker30) Picker
        LCALL   ?Subroutine12 & 0xFFFF
        CFI EndBlock cfiCond28
        CFI EndBlock cfiCond29
        CFI EndBlock cfiPicker30
??CrossCallReturnLabel_18:
        REQUIRE ??Subroutine13_0
        ; // Fall through to label ??Subroutine13_0

        RSEG BANKED_CODE:CODE:NOROOT(0)
??Subroutine13_0:
        CFI Block cfiCond31 Using cfiCommon0
        CFI NoFunction
        CFI Conditional ??CrossCallReturnLabel_20
        CFI R6 load(1, XDATA, add(CFA_XSP16, literal(-18)))
        CFI VB load(1, XDATA, add(CFA_XSP16, literal(-17)))
        CFI V0 load(1, XDATA, add(CFA_XSP16, literal(-16)))
        CFI V1 load(1, XDATA, add(CFA_XSP16, literal(-15)))
        CFI V2 load(1, XDATA, add(CFA_XSP16, literal(-14)))
        CFI V3 load(1, XDATA, add(CFA_XSP16, literal(-13)))
        CFI V4 load(1, XDATA, add(CFA_XSP16, literal(-12)))
        CFI V5 load(1, XDATA, add(CFA_XSP16, literal(-11)))
        CFI V6 load(1, XDATA, add(CFA_XSP16, literal(-10)))
        CFI V7 load(1, XDATA, add(CFA_XSP16, literal(-9)))
        CFI V8 load(1, XDATA, add(CFA_XSP16, literal(-8)))
        CFI V9 load(1, XDATA, add(CFA_XSP16, literal(-7)))
        CFI R7 load(1, XDATA, add(CFA_XSP16, literal(-6)))
        CFI ?RET_LOW load(1, XDATA, add(CFA_XSP16, literal(-5)))
        CFI ?RET_HIGH load(1, XDATA, add(CFA_XSP16, literal(-4)))
        CFI ?BRET_EXT load(1, XDATA, add(CFA_XSP16, literal(-3)))
        CFI DPL0 load(1, XDATA, add(CFA_XSP16, literal(-2)))
        CFI DPH0 load(1, XDATA, add(CFA_XSP16, literal(-1)))
        CFI CFA_SP SP+0
        CFI CFA_XSP16 add(XSP16, 20)
        CFI Block cfiCond32 Using cfiCommon0
        CFI (cfiCond32) NoFunction
        CFI (cfiCond32) Conditional ??CrossCallReturnLabel_21
        CFI (cfiCond32) R6 load(1, XDATA, add(CFA_XSP16, literal(-18)))
        CFI (cfiCond32) VB load(1, XDATA, add(CFA_XSP16, literal(-17)))
        CFI (cfiCond32) V0 load(1, XDATA, add(CFA_XSP16, literal(-16)))
        CFI (cfiCond32) V1 load(1, XDATA, add(CFA_XSP16, literal(-15)))
        CFI (cfiCond32) V2 load(1, XDATA, add(CFA_XSP16, literal(-14)))
        CFI (cfiCond32) V3 load(1, XDATA, add(CFA_XSP16, literal(-13)))
        CFI (cfiCond32) V4 load(1, XDATA, add(CFA_XSP16, literal(-12)))
        CFI (cfiCond32) V5 load(1, XDATA, add(CFA_XSP16, literal(-11)))
        CFI (cfiCond32) V6 load(1, XDATA, add(CFA_XSP16, literal(-10)))
        CFI (cfiCond32) V7 load(1, XDATA, add(CFA_XSP16, literal(-9)))
        CFI (cfiCond32) V8 load(1, XDATA, add(CFA_XSP16, literal(-8)))
        CFI (cfiCond32) V9 load(1, XDATA, add(CFA_XSP16, literal(-7)))
        CFI (cfiCond32) R7 load(1, XDATA, add(CFA_XSP16, literal(-6)))
        CFI (cfiCond32) ?RET_LOW load(1, XDATA, add(CFA_XSP16, literal(-5)))
        CFI (cfiCond32) ?RET_HIGH load(1, XDATA, add(CFA_XSP16, literal(-4)))
        CFI (cfiCond32) ?BRET_EXT load(1, XDATA, add(CFA_XSP16, literal(-3)))
        CFI (cfiCond32) DPL0 load(1, XDATA, add(CFA_XSP16, literal(-2)))
        CFI (cfiCond32) DPH0 load(1, XDATA, add(CFA_XSP16, literal(-1)))
        CFI (cfiCond32) CFA_SP SP+0
        CFI (cfiCond32) CFA_XSP16 add(XSP16, 20)
        CFI Block cfiCond33 Using cfiCommon0
        CFI (cfiCond33) NoFunction
        CFI (cfiCond33) Conditional ??CrossCallReturnLabel_22
        CFI (cfiCond33) R6 load(1, XDATA, add(CFA_XSP16, literal(-18)))
        CFI (cfiCond33) VB load(1, XDATA, add(CFA_XSP16, literal(-17)))
        CFI (cfiCond33) V0 load(1, XDATA, add(CFA_XSP16, literal(-16)))
        CFI (cfiCond33) V1 load(1, XDATA, add(CFA_XSP16, literal(-15)))
        CFI (cfiCond33) V2 load(1, XDATA, add(CFA_XSP16, literal(-14)))
        CFI (cfiCond33) V3 load(1, XDATA, add(CFA_XSP16, literal(-13)))
        CFI (cfiCond33) V4 load(1, XDATA, add(CFA_XSP16, literal(-12)))
        CFI (cfiCond33) V5 load(1, XDATA, add(CFA_XSP16, literal(-11)))
        CFI (cfiCond33) V6 load(1, XDATA, add(CFA_XSP16, literal(-10)))
        CFI (cfiCond33) V7 load(1, XDATA, add(CFA_XSP16, literal(-9)))
        CFI (cfiCond33) V8 load(1, XDATA, add(CFA_XSP16, literal(-8)))
        CFI (cfiCond33) V9 load(1, XDATA, add(CFA_XSP16, literal(-7)))
        CFI (cfiCond33) R7 load(1, XDATA, add(CFA_XSP16, literal(-6)))
        CFI (cfiCond33) ?RET_LOW load(1, XDATA, add(CFA_XSP16, literal(-5)))
        CFI (cfiCond33) ?RET_HIGH load(1, XDATA, add(CFA_XSP16, literal(-4)))
        CFI (cfiCond33) ?BRET_EXT load(1, XDATA, add(CFA_XSP16, literal(-3)))
        CFI (cfiCond33) DPL0 load(1, XDATA, add(CFA_XSP16, literal(-2)))
        CFI (cfiCond33) DPH0 load(1, XDATA, add(CFA_XSP16, literal(-1)))
        CFI (cfiCond33) CFA_SP SP+0
        CFI (cfiCond33) CFA_XSP16 add(XSP16, 20)
        CFI Block cfiPicker34 Using cfiCommon1
        CFI (cfiPicker34) NoFunction
        CFI (cfiPicker34) Picker
        MOV     A,R0
        ADD     A,#0x2
        INC     R0
        INC     R0
        MOV     A,R1
        CFI EndBlock cfiCond31
        CFI EndBlock cfiCond32
        CFI EndBlock cfiCond33
        CFI EndBlock cfiPicker34
        REQUIRE ??Subroutine14_0
        ; // Fall through to label ??Subroutine14_0

        RSEG BANKED_CODE:CODE:NOROOT(0)
??Subroutine14_0:
        CFI Block cfiCond35 Using cfiCommon0
        CFI NoFunction
        CFI Conditional ??CrossCallReturnLabel_19
        CFI R6 load(1, XDATA, add(CFA_XSP16, literal(-18)))
        CFI VB load(1, XDATA, add(CFA_XSP16, literal(-17)))
        CFI V0 load(1, XDATA, add(CFA_XSP16, literal(-16)))
        CFI V1 load(1, XDATA, add(CFA_XSP16, literal(-15)))
        CFI V2 load(1, XDATA, add(CFA_XSP16, literal(-14)))
        CFI V3 load(1, XDATA, add(CFA_XSP16, literal(-13)))
        CFI V4 load(1, XDATA, add(CFA_XSP16, literal(-12)))
        CFI V5 load(1, XDATA, add(CFA_XSP16, literal(-11)))
        CFI V6 load(1, XDATA, add(CFA_XSP16, literal(-10)))
        CFI V7 load(1, XDATA, add(CFA_XSP16, literal(-9)))
        CFI V8 load(1, XDATA, add(CFA_XSP16, literal(-8)))
        CFI V9 load(1, XDATA, add(CFA_XSP16, literal(-7)))
        CFI R7 load(1, XDATA, add(CFA_XSP16, literal(-6)))
        CFI ?RET_LOW load(1, XDATA, add(CFA_XSP16, literal(-5)))
        CFI ?RET_HIGH load(1, XDATA, add(CFA_XSP16, literal(-4)))
        CFI ?BRET_EXT load(1, XDATA, add(CFA_XSP16, literal(-3)))
        CFI DPL0 load(1, XDATA, add(CFA_XSP16, literal(-2)))
        CFI DPH0 load(1, XDATA, add(CFA_XSP16, literal(-1)))
        CFI CFA_SP SP+0
        CFI CFA_XSP16 add(XSP16, 20)
        CFI Block cfiCond36 Using cfiCommon0
        CFI (cfiCond36) NoFunction
        CFI (cfiCond36) Conditional ??CrossCallReturnLabel_20
        CFI (cfiCond36) R6 load(1, XDATA, add(CFA_XSP16, literal(-18)))
        CFI (cfiCond36) VB load(1, XDATA, add(CFA_XSP16, literal(-17)))
        CFI (cfiCond36) V0 load(1, XDATA, add(CFA_XSP16, literal(-16)))
        CFI (cfiCond36) V1 load(1, XDATA, add(CFA_XSP16, literal(-15)))
        CFI (cfiCond36) V2 load(1, XDATA, add(CFA_XSP16, literal(-14)))
        CFI (cfiCond36) V3 load(1, XDATA, add(CFA_XSP16, literal(-13)))
        CFI (cfiCond36) V4 load(1, XDATA, add(CFA_XSP16, literal(-12)))
        CFI (cfiCond36) V5 load(1, XDATA, add(CFA_XSP16, literal(-11)))
        CFI (cfiCond36) V6 load(1, XDATA, add(CFA_XSP16, literal(-10)))
        CFI (cfiCond36) V7 load(1, XDATA, add(CFA_XSP16, literal(-9)))
        CFI (cfiCond36) V8 load(1, XDATA, add(CFA_XSP16, literal(-8)))
        CFI (cfiCond36) V9 load(1, XDATA, add(CFA_XSP16, literal(-7)))
        CFI (cfiCond36) R7 load(1, XDATA, add(CFA_XSP16, literal(-6)))
        CFI (cfiCond36) ?RET_LOW load(1, XDATA, add(CFA_XSP16, literal(-5)))
        CFI (cfiCond36) ?RET_HIGH load(1, XDATA, add(CFA_XSP16, literal(-4)))
        CFI (cfiCond36) ?BRET_EXT load(1, XDATA, add(CFA_XSP16, literal(-3)))
        CFI (cfiCond36) DPL0 load(1, XDATA, add(CFA_XSP16, literal(-2)))
        CFI (cfiCond36) DPH0 load(1, XDATA, add(CFA_XSP16, literal(-1)))
        CFI (cfiCond36) CFA_SP SP+0
        CFI (cfiCond36) CFA_XSP16 add(XSP16, 20)
        CFI Block cfiCond37 Using cfiCommon0
        CFI (cfiCond37) NoFunction
        CFI (cfiCond37) Conditional ??CrossCallReturnLabel_21
        CFI (cfiCond37) R6 load(1, XDATA, add(CFA_XSP16, literal(-18)))
        CFI (cfiCond37) VB load(1, XDATA, add(CFA_XSP16, literal(-17)))
        CFI (cfiCond37) V0 load(1, XDATA, add(CFA_XSP16, literal(-16)))
        CFI (cfiCond37) V1 load(1, XDATA, add(CFA_XSP16, literal(-15)))
        CFI (cfiCond37) V2 load(1, XDATA, add(CFA_XSP16, literal(-14)))
        CFI (cfiCond37) V3 load(1, XDATA, add(CFA_XSP16, literal(-13)))
        CFI (cfiCond37) V4 load(1, XDATA, add(CFA_XSP16, literal(-12)))
        CFI (cfiCond37) V5 load(1, XDATA, add(CFA_XSP16, literal(-11)))
        CFI (cfiCond37) V6 load(1, XDATA, add(CFA_XSP16, literal(-10)))
        CFI (cfiCond37) V7 load(1, XDATA, add(CFA_XSP16, literal(-9)))
        CFI (cfiCond37) V8 load(1, XDATA, add(CFA_XSP16, literal(-8)))
        CFI (cfiCond37) V9 load(1, XDATA, add(CFA_XSP16, literal(-7)))
        CFI (cfiCond37) R7 load(1, XDATA, add(CFA_XSP16, literal(-6)))
        CFI (cfiCond37) ?RET_LOW load(1, XDATA, add(CFA_XSP16, literal(-5)))
        CFI (cfiCond37) ?RET_HIGH load(1, XDATA, add(CFA_XSP16, literal(-4)))
        CFI (cfiCond37) ?BRET_EXT load(1, XDATA, add(CFA_XSP16, literal(-3)))
        CFI (cfiCond37) DPL0 load(1, XDATA, add(CFA_XSP16, literal(-2)))
        CFI (cfiCond37) DPH0 load(1, XDATA, add(CFA_XSP16, literal(-1)))
        CFI (cfiCond37) CFA_SP SP+0
        CFI (cfiCond37) CFA_XSP16 add(XSP16, 20)
        CFI Block cfiCond38 Using cfiCommon0
        CFI (cfiCond38) NoFunction
        CFI (cfiCond38) Conditional ??CrossCallReturnLabel_22
        CFI (cfiCond38) R6 load(1, XDATA, add(CFA_XSP16, literal(-18)))
        CFI (cfiCond38) VB load(1, XDATA, add(CFA_XSP16, literal(-17)))
        CFI (cfiCond38) V0 load(1, XDATA, add(CFA_XSP16, literal(-16)))
        CFI (cfiCond38) V1 load(1, XDATA, add(CFA_XSP16, literal(-15)))
        CFI (cfiCond38) V2 load(1, XDATA, add(CFA_XSP16, literal(-14)))
        CFI (cfiCond38) V3 load(1, XDATA, add(CFA_XSP16, literal(-13)))
        CFI (cfiCond38) V4 load(1, XDATA, add(CFA_XSP16, literal(-12)))
        CFI (cfiCond38) V5 load(1, XDATA, add(CFA_XSP16, literal(-11)))
        CFI (cfiCond38) V6 load(1, XDATA, add(CFA_XSP16, literal(-10)))
        CFI (cfiCond38) V7 load(1, XDATA, add(CFA_XSP16, literal(-9)))
        CFI (cfiCond38) V8 load(1, XDATA, add(CFA_XSP16, literal(-8)))
        CFI (cfiCond38) V9 load(1, XDATA, add(CFA_XSP16, literal(-7)))
        CFI (cfiCond38) R7 load(1, XDATA, add(CFA_XSP16, literal(-6)))
        CFI (cfiCond38) ?RET_LOW load(1, XDATA, add(CFA_XSP16, literal(-5)))
        CFI (cfiCond38) ?RET_HIGH load(1, XDATA, add(CFA_XSP16, literal(-4)))
        CFI (cfiCond38) ?BRET_EXT load(1, XDATA, add(CFA_XSP16, literal(-3)))
        CFI (cfiCond38) DPL0 load(1, XDATA, add(CFA_XSP16, literal(-2)))
        CFI (cfiCond38) DPH0 load(1, XDATA, add(CFA_XSP16, literal(-1)))
        CFI (cfiCond38) CFA_SP SP+0
        CFI (cfiCond38) CFA_XSP16 add(XSP16, 20)
        CFI Block cfiPicker39 Using cfiCommon1
        CFI (cfiPicker39) NoFunction
        CFI (cfiPicker39) Picker
        LCALL   ?Subroutine10 & 0xFFFF
??CrossCallReturnLabel_24:
        RET
        CFI EndBlock cfiCond35
        CFI EndBlock cfiCond36
        CFI EndBlock cfiCond37
        CFI EndBlock cfiCond38
        CFI EndBlock cfiPicker39

        RSEG BANKED_CODE:CODE:NOROOT(0)
?Subroutine10:
        CFI Block cfiCond40 Using cfiCommon0
        CFI NoFunction
        CFI Conditional ??CrossCallReturnLabel_24, ??CrossCallReturnLabel_21
        CFI R6 load(1, XDATA, add(CFA_XSP16, literal(-18)))
        CFI VB load(1, XDATA, add(CFA_XSP16, literal(-17)))
        CFI V0 load(1, XDATA, add(CFA_XSP16, literal(-16)))
        CFI V1 load(1, XDATA, add(CFA_XSP16, literal(-15)))
        CFI V2 load(1, XDATA, add(CFA_XSP16, literal(-14)))
        CFI V3 load(1, XDATA, add(CFA_XSP16, literal(-13)))
        CFI V4 load(1, XDATA, add(CFA_XSP16, literal(-12)))
        CFI V5 load(1, XDATA, add(CFA_XSP16, literal(-11)))
        CFI V6 load(1, XDATA, add(CFA_XSP16, literal(-10)))
        CFI V7 load(1, XDATA, add(CFA_XSP16, literal(-9)))
        CFI V8 load(1, XDATA, add(CFA_XSP16, literal(-8)))
        CFI V9 load(1, XDATA, add(CFA_XSP16, literal(-7)))
        CFI R7 load(1, XDATA, add(CFA_XSP16, literal(-6)))
        CFI ?RET_LOW load(1, XDATA, add(CFA_XSP16, literal(-5)))
        CFI ?RET_HIGH load(1, XDATA, add(CFA_XSP16, literal(-4)))
        CFI ?BRET_EXT load(1, XDATA, add(CFA_XSP16, literal(-3)))
        CFI DPL0 load(1, XDATA, add(CFA_XSP16, literal(-2)))
        CFI DPH0 load(1, XDATA, add(CFA_XSP16, literal(-1)))
        CFI CFA_SP SP+0
        CFI CFA_XSP16 add(XSP16, 20)
        CFI Block cfiCond41 Using cfiCommon0
        CFI (cfiCond41) NoFunction
        CFI (cfiCond41) Conditional ??CrossCallReturnLabel_24, ??CrossCallReturnLabel_22
        CFI (cfiCond41) R6 load(1, XDATA, add(CFA_XSP16, literal(-18)))
        CFI (cfiCond41) VB load(1, XDATA, add(CFA_XSP16, literal(-17)))
        CFI (cfiCond41) V0 load(1, XDATA, add(CFA_XSP16, literal(-16)))
        CFI (cfiCond41) V1 load(1, XDATA, add(CFA_XSP16, literal(-15)))
        CFI (cfiCond41) V2 load(1, XDATA, add(CFA_XSP16, literal(-14)))
        CFI (cfiCond41) V3 load(1, XDATA, add(CFA_XSP16, literal(-13)))
        CFI (cfiCond41) V4 load(1, XDATA, add(CFA_XSP16, literal(-12)))
        CFI (cfiCond41) V5 load(1, XDATA, add(CFA_XSP16, literal(-11)))
        CFI (cfiCond41) V6 load(1, XDATA, add(CFA_XSP16, literal(-10)))
        CFI (cfiCond41) V7 load(1, XDATA, add(CFA_XSP16, literal(-9)))
        CFI (cfiCond41) V8 load(1, XDATA, add(CFA_XSP16, literal(-8)))
        CFI (cfiCond41) V9 load(1, XDATA, add(CFA_XSP16, literal(-7)))
        CFI (cfiCond41) R7 load(1, XDATA, add(CFA_XSP16, literal(-6)))
        CFI (cfiCond41) ?RET_LOW load(1, XDATA, add(CFA_XSP16, literal(-5)))
        CFI (cfiCond41) ?RET_HIGH load(1, XDATA, add(CFA_XSP16, literal(-4)))
        CFI (cfiCond41) ?BRET_EXT load(1, XDATA, add(CFA_XSP16, literal(-3)))
        CFI (cfiCond41) DPL0 load(1, XDATA, add(CFA_XSP16, literal(-2)))
        CFI (cfiCond41) DPH0 load(1, XDATA, add(CFA_XSP16, literal(-1)))
        CFI (cfiCond41) CFA_SP SP+0
        CFI (cfiCond41) CFA_XSP16 add(XSP16, 20)
        CFI Block cfiCond42 Using cfiCommon0
        CFI (cfiCond42) NoFunction
        CFI (cfiCond42) Conditional ??CrossCallReturnLabel_24, ??CrossCallReturnLabel_20
        CFI (cfiCond42) R6 load(1, XDATA, add(CFA_XSP16, literal(-18)))
        CFI (cfiCond42) VB load(1, XDATA, add(CFA_XSP16, literal(-17)))
        CFI (cfiCond42) V0 load(1, XDATA, add(CFA_XSP16, literal(-16)))
        CFI (cfiCond42) V1 load(1, XDATA, add(CFA_XSP16, literal(-15)))
        CFI (cfiCond42) V2 load(1, XDATA, add(CFA_XSP16, literal(-14)))
        CFI (cfiCond42) V3 load(1, XDATA, add(CFA_XSP16, literal(-13)))
        CFI (cfiCond42) V4 load(1, XDATA, add(CFA_XSP16, literal(-12)))
        CFI (cfiCond42) V5 load(1, XDATA, add(CFA_XSP16, literal(-11)))
        CFI (cfiCond42) V6 load(1, XDATA, add(CFA_XSP16, literal(-10)))
        CFI (cfiCond42) V7 load(1, XDATA, add(CFA_XSP16, literal(-9)))
        CFI (cfiCond42) V8 load(1, XDATA, add(CFA_XSP16, literal(-8)))
        CFI (cfiCond42) V9 load(1, XDATA, add(CFA_XSP16, literal(-7)))
        CFI (cfiCond42) R7 load(1, XDATA, add(CFA_XSP16, literal(-6)))
        CFI (cfiCond42) ?RET_LOW load(1, XDATA, add(CFA_XSP16, literal(-5)))
        CFI (cfiCond42) ?RET_HIGH load(1, XDATA, add(CFA_XSP16, literal(-4)))
        CFI (cfiCond42) ?BRET_EXT load(1, XDATA, add(CFA_XSP16, literal(-3)))
        CFI (cfiCond42) DPL0 load(1, XDATA, add(CFA_XSP16, literal(-2)))
        CFI (cfiCond42) DPH0 load(1, XDATA, add(CFA_XSP16, literal(-1)))
        CFI (cfiCond42) CFA_SP SP+0
        CFI (cfiCond42) CFA_XSP16 add(XSP16, 20)
        CFI Block cfiCond43 Using cfiCommon0
        CFI (cfiCond43) NoFunction
        CFI (cfiCond43) Conditional ??CrossCallReturnLabel_24, ??CrossCallReturnLabel_19
        CFI (cfiCond43) R6 load(1, XDATA, add(CFA_XSP16, literal(-18)))
        CFI (cfiCond43) VB load(1, XDATA, add(CFA_XSP16, literal(-17)))
        CFI (cfiCond43) V0 load(1, XDATA, add(CFA_XSP16, literal(-16)))
        CFI (cfiCond43) V1 load(1, XDATA, add(CFA_XSP16, literal(-15)))
        CFI (cfiCond43) V2 load(1, XDATA, add(CFA_XSP16, literal(-14)))
        CFI (cfiCond43) V3 load(1, XDATA, add(CFA_XSP16, literal(-13)))
        CFI (cfiCond43) V4 load(1, XDATA, add(CFA_XSP16, literal(-12)))
        CFI (cfiCond43) V5 load(1, XDATA, add(CFA_XSP16, literal(-11)))
        CFI (cfiCond43) V6 load(1, XDATA, add(CFA_XSP16, literal(-10)))
        CFI (cfiCond43) V7 load(1, XDATA, add(CFA_XSP16, literal(-9)))
        CFI (cfiCond43) V8 load(1, XDATA, add(CFA_XSP16, literal(-8)))
        CFI (cfiCond43) V9 load(1, XDATA, add(CFA_XSP16, literal(-7)))
        CFI (cfiCond43) R7 load(1, XDATA, add(CFA_XSP16, literal(-6)))
        CFI (cfiCond43) ?RET_LOW load(1, XDATA, add(CFA_XSP16, literal(-5)))
        CFI (cfiCond43) ?RET_HIGH load(1, XDATA, add(CFA_XSP16, literal(-4)))
        CFI (cfiCond43) ?BRET_EXT load(1, XDATA, add(CFA_XSP16, literal(-3)))
        CFI (cfiCond43) DPL0 load(1, XDATA, add(CFA_XSP16, literal(-2)))
        CFI (cfiCond43) DPH0 load(1, XDATA, add(CFA_XSP16, literal(-1)))
        CFI (cfiCond43) CFA_SP SP+0
        CFI (cfiCond43) CFA_XSP16 add(XSP16, 20)
        CFI Block cfiCond44 Using cfiCommon0
        CFI (cfiCond44) NoFunction
        CFI (cfiCond44) Conditional ??CrossCallReturnLabel_23, ??CrossCallReturnLabel_0
        CFI (cfiCond44) R6 load(1, XDATA, add(CFA_XSP16, literal(-18)))
        CFI (cfiCond44) VB load(1, XDATA, add(CFA_XSP16, literal(-17)))
        CFI (cfiCond44) V0 load(1, XDATA, add(CFA_XSP16, literal(-16)))
        CFI (cfiCond44) V1 load(1, XDATA, add(CFA_XSP16, literal(-15)))
        CFI (cfiCond44) V2 load(1, XDATA, add(CFA_XSP16, literal(-14)))
        CFI (cfiCond44) V3 load(1, XDATA, add(CFA_XSP16, literal(-13)))
        CFI (cfiCond44) V4 load(1, XDATA, add(CFA_XSP16, literal(-12)))
        CFI (cfiCond44) V5 load(1, XDATA, add(CFA_XSP16, literal(-11)))
        CFI (cfiCond44) V6 load(1, XDATA, add(CFA_XSP16, literal(-10)))
        CFI (cfiCond44) V7 load(1, XDATA, add(CFA_XSP16, literal(-9)))
        CFI (cfiCond44) V8 load(1, XDATA, add(CFA_XSP16, literal(-8)))
        CFI (cfiCond44) V9 load(1, XDATA, add(CFA_XSP16, literal(-7)))
        CFI (cfiCond44) R7 load(1, XDATA, add(CFA_XSP16, literal(-6)))
        CFI (cfiCond44) ?RET_LOW load(1, XDATA, add(CFA_XSP16, literal(-5)))
        CFI (cfiCond44) ?RET_HIGH load(1, XDATA, add(CFA_XSP16, literal(-4)))
        CFI (cfiCond44) ?BRET_EXT load(1, XDATA, add(CFA_XSP16, literal(-3)))
        CFI (cfiCond44) DPL0 load(1, XDATA, add(CFA_XSP16, literal(-2)))
        CFI (cfiCond44) DPH0 load(1, XDATA, add(CFA_XSP16, literal(-1)))
        CFI (cfiCond44) CFA_SP SP+0
        CFI (cfiCond44) CFA_XSP16 add(XSP16, 20)
        CFI Block cfiCond45 Using cfiCommon0
        CFI (cfiCond45) NoFunction
        CFI (cfiCond45) Conditional ??CrossCallReturnLabel_23, ??CrossCallReturnLabel_1
        CFI (cfiCond45) R6 load(1, XDATA, add(CFA_XSP16, literal(-18)))
        CFI (cfiCond45) VB load(1, XDATA, add(CFA_XSP16, literal(-17)))
        CFI (cfiCond45) V0 load(1, XDATA, add(CFA_XSP16, literal(-16)))
        CFI (cfiCond45) V1 load(1, XDATA, add(CFA_XSP16, literal(-15)))
        CFI (cfiCond45) V2 load(1, XDATA, add(CFA_XSP16, literal(-14)))
        CFI (cfiCond45) V3 load(1, XDATA, add(CFA_XSP16, literal(-13)))
        CFI (cfiCond45) V4 load(1, XDATA, add(CFA_XSP16, literal(-12)))
        CFI (cfiCond45) V5 load(1, XDATA, add(CFA_XSP16, literal(-11)))
        CFI (cfiCond45) V6 load(1, XDATA, add(CFA_XSP16, literal(-10)))
        CFI (cfiCond45) V7 load(1, XDATA, add(CFA_XSP16, literal(-9)))
        CFI (cfiCond45) V8 load(1, XDATA, add(CFA_XSP16, literal(-8)))
        CFI (cfiCond45) V9 load(1, XDATA, add(CFA_XSP16, literal(-7)))
        CFI (cfiCond45) R7 load(1, XDATA, add(CFA_XSP16, literal(-6)))
        CFI (cfiCond45) ?RET_LOW load(1, XDATA, add(CFA_XSP16, literal(-5)))
        CFI (cfiCond45) ?RET_HIGH load(1, XDATA, add(CFA_XSP16, literal(-4)))
        CFI (cfiCond45) ?BRET_EXT load(1, XDATA, add(CFA_XSP16, literal(-3)))
        CFI (cfiCond45) DPL0 load(1, XDATA, add(CFA_XSP16, literal(-2)))
        CFI (cfiCond45) DPH0 load(1, XDATA, add(CFA_XSP16, literal(-1)))
        CFI (cfiCond45) CFA_SP SP+0
        CFI (cfiCond45) CFA_XSP16 add(XSP16, 20)
        CFI Block cfiPicker46 Using cfiCommon1
        CFI (cfiPicker46) NoFunction
        CFI (cfiPicker46) Picker
        ADDC    A,#0x0
        MOV     R1,A
        MOV     DPL,?V0 + 4
        MOV     DPH,?V0 + 5
        MOV     A,R0
        MOVX    @DPTR,A
        INC     DPTR
        MOV     A,R1
        MOVX    @DPTR,A
        RET
        CFI EndBlock cfiCond40
        CFI EndBlock cfiCond41
        CFI EndBlock cfiCond42
        CFI EndBlock cfiCond43
        CFI EndBlock cfiCond44
        CFI EndBlock cfiCond45
        CFI EndBlock cfiPicker46

        RSEG BANKED_CODE:CODE:NOROOT(0)
?Subroutine3:
        CFI Block cfiCond47 Using cfiCommon0
        CFI NoFunction
        CFI Conditional ??CrossCallReturnLabel_0
        CFI R6 load(1, XDATA, add(CFA_XSP16, literal(-18)))
        CFI VB load(1, XDATA, add(CFA_XSP16, literal(-17)))
        CFI V0 load(1, XDATA, add(CFA_XSP16, literal(-16)))
        CFI V1 load(1, XDATA, add(CFA_XSP16, literal(-15)))
        CFI V2 load(1, XDATA, add(CFA_XSP16, literal(-14)))
        CFI V3 load(1, XDATA, add(CFA_XSP16, literal(-13)))
        CFI V4 load(1, XDATA, add(CFA_XSP16, literal(-12)))
        CFI V5 load(1, XDATA, add(CFA_XSP16, literal(-11)))
        CFI V6 load(1, XDATA, add(CFA_XSP16, literal(-10)))
        CFI V7 load(1, XDATA, add(CFA_XSP16, literal(-9)))
        CFI V8 load(1, XDATA, add(CFA_XSP16, literal(-8)))
        CFI V9 load(1, XDATA, add(CFA_XSP16, literal(-7)))
        CFI R7 load(1, XDATA, add(CFA_XSP16, literal(-6)))
        CFI ?RET_LOW load(1, XDATA, add(CFA_XSP16, literal(-5)))
        CFI ?RET_HIGH load(1, XDATA, add(CFA_XSP16, literal(-4)))
        CFI ?BRET_EXT load(1, XDATA, add(CFA_XSP16, literal(-3)))
        CFI DPL0 load(1, XDATA, add(CFA_XSP16, literal(-2)))
        CFI DPH0 load(1, XDATA, add(CFA_XSP16, literal(-1)))
        CFI CFA_SP SP+0
        CFI CFA_XSP16 add(XSP16, 20)
        CFI Block cfiCond48 Using cfiCommon0
        CFI (cfiCond48) NoFunction
        CFI (cfiCond48) Conditional ??CrossCallReturnLabel_1
        CFI (cfiCond48) R6 load(1, XDATA, add(CFA_XSP16, literal(-18)))
        CFI (cfiCond48) VB load(1, XDATA, add(CFA_XSP16, literal(-17)))
        CFI (cfiCond48) V0 load(1, XDATA, add(CFA_XSP16, literal(-16)))
        CFI (cfiCond48) V1 load(1, XDATA, add(CFA_XSP16, literal(-15)))
        CFI (cfiCond48) V2 load(1, XDATA, add(CFA_XSP16, literal(-14)))
        CFI (cfiCond48) V3 load(1, XDATA, add(CFA_XSP16, literal(-13)))
        CFI (cfiCond48) V4 load(1, XDATA, add(CFA_XSP16, literal(-12)))
        CFI (cfiCond48) V5 load(1, XDATA, add(CFA_XSP16, literal(-11)))
        CFI (cfiCond48) V6 load(1, XDATA, add(CFA_XSP16, literal(-10)))
        CFI (cfiCond48) V7 load(1, XDATA, add(CFA_XSP16, literal(-9)))
        CFI (cfiCond48) V8 load(1, XDATA, add(CFA_XSP16, literal(-8)))
        CFI (cfiCond48) V9 load(1, XDATA, add(CFA_XSP16, literal(-7)))
        CFI (cfiCond48) R7 load(1, XDATA, add(CFA_XSP16, literal(-6)))
        CFI (cfiCond48) ?RET_LOW load(1, XDATA, add(CFA_XSP16, literal(-5)))
        CFI (cfiCond48) ?RET_HIGH load(1, XDATA, add(CFA_XSP16, literal(-4)))
        CFI (cfiCond48) ?BRET_EXT load(1, XDATA, add(CFA_XSP16, literal(-3)))
        CFI (cfiCond48) DPL0 load(1, XDATA, add(CFA_XSP16, literal(-2)))
        CFI (cfiCond48) DPH0 load(1, XDATA, add(CFA_XSP16, literal(-1)))
        CFI (cfiCond48) CFA_SP SP+0
        CFI (cfiCond48) CFA_XSP16 add(XSP16, 20)
        CFI Block cfiPicker49 Using cfiCommon1
        CFI (cfiPicker49) NoFunction
        CFI (cfiPicker49) Picker
        LCALL   ?Subroutine12 & 0xFFFF
??CrossCallReturnLabel_17:
        MOV     A,R0
        ADD     A,#0x2
        INC     R0
        INC     R0
        MOV     A,R1
        LCALL   ?Subroutine10 & 0xFFFF
??CrossCallReturnLabel_23:
        ; Setup parameters for call to function printi
        ; Setup parameters for call to function printi
        MOV     ?V0 + 8,#0x61
        MOV     ?V0 + 9,R5
        MOV     R0,#?V0 + 8
        RET
        CFI EndBlock cfiCond47
        CFI EndBlock cfiCond48
        CFI EndBlock cfiPicker49

        RSEG BANKED_CODE:CODE:NOROOT(0)
?Subroutine12:
        CFI Block cfiCond50 Using cfiCommon0
        CFI NoFunction
        CFI Conditional ??CrossCallReturnLabel_18, ??CrossCallReturnLabel_21
        CFI R6 load(1, XDATA, add(CFA_XSP16, literal(-18)))
        CFI VB load(1, XDATA, add(CFA_XSP16, literal(-17)))
        CFI V0 load(1, XDATA, add(CFA_XSP16, literal(-16)))
        CFI V1 load(1, XDATA, add(CFA_XSP16, literal(-15)))
        CFI V2 load(1, XDATA, add(CFA_XSP16, literal(-14)))
        CFI V3 load(1, XDATA, add(CFA_XSP16, literal(-13)))
        CFI V4 load(1, XDATA, add(CFA_XSP16, literal(-12)))
        CFI V5 load(1, XDATA, add(CFA_XSP16, literal(-11)))
        CFI V6 load(1, XDATA, add(CFA_XSP16, literal(-10)))
        CFI V7 load(1, XDATA, add(CFA_XSP16, literal(-9)))
        CFI V8 load(1, XDATA, add(CFA_XSP16, literal(-8)))
        CFI V9 load(1, XDATA, add(CFA_XSP16, literal(-7)))
        CFI R7 load(1, XDATA, add(CFA_XSP16, literal(-6)))
        CFI ?RET_LOW load(1, XDATA, add(CFA_XSP16, literal(-5)))
        CFI ?RET_HIGH load(1, XDATA, add(CFA_XSP16, literal(-4)))
        CFI ?BRET_EXT load(1, XDATA, add(CFA_XSP16, literal(-3)))
        CFI DPL0 load(1, XDATA, add(CFA_XSP16, literal(-2)))
        CFI DPH0 load(1, XDATA, add(CFA_XSP16, literal(-1)))
        CFI CFA_SP SP+0
        CFI CFA_XSP16 add(XSP16, 20)
        CFI Block cfiCond51 Using cfiCommon0
        CFI (cfiCond51) NoFunction
        CFI (cfiCond51) Conditional ??CrossCallReturnLabel_18, ??CrossCallReturnLabel_22
        CFI (cfiCond51) R6 load(1, XDATA, add(CFA_XSP16, literal(-18)))
        CFI (cfiCond51) VB load(1, XDATA, add(CFA_XSP16, literal(-17)))
        CFI (cfiCond51) V0 load(1, XDATA, add(CFA_XSP16, literal(-16)))
        CFI (cfiCond51) V1 load(1, XDATA, add(CFA_XSP16, literal(-15)))
        CFI (cfiCond51) V2 load(1, XDATA, add(CFA_XSP16, literal(-14)))
        CFI (cfiCond51) V3 load(1, XDATA, add(CFA_XSP16, literal(-13)))
        CFI (cfiCond51) V4 load(1, XDATA, add(CFA_XSP16, literal(-12)))
        CFI (cfiCond51) V5 load(1, XDATA, add(CFA_XSP16, literal(-11)))
        CFI (cfiCond51) V6 load(1, XDATA, add(CFA_XSP16, literal(-10)))
        CFI (cfiCond51) V7 load(1, XDATA, add(CFA_XSP16, literal(-9)))
        CFI (cfiCond51) V8 load(1, XDATA, add(CFA_XSP16, literal(-8)))
        CFI (cfiCond51) V9 load(1, XDATA, add(CFA_XSP16, literal(-7)))
        CFI (cfiCond51) R7 load(1, XDATA, add(CFA_XSP16, literal(-6)))
        CFI (cfiCond51) ?RET_LOW load(1, XDATA, add(CFA_XSP16, literal(-5)))
        CFI (cfiCond51) ?RET_HIGH load(1, XDATA, add(CFA_XSP16, literal(-4)))
        CFI (cfiCond51) ?BRET_EXT load(1, XDATA, add(CFA_XSP16, literal(-3)))
        CFI (cfiCond51) DPL0 load(1, XDATA, add(CFA_XSP16, literal(-2)))
        CFI (cfiCond51) DPH0 load(1, XDATA, add(CFA_XSP16, literal(-1)))
        CFI (cfiCond51) CFA_SP SP+0
        CFI (cfiCond51) CFA_XSP16 add(XSP16, 20)
        CFI Block cfiCond52 Using cfiCommon0
        CFI (cfiCond52) NoFunction
        CFI (cfiCond52) Conditional ??CrossCallReturnLabel_17, ??CrossCallReturnLabel_0
        CFI (cfiCond52) R6 load(1, XDATA, add(CFA_XSP16, literal(-18)))
        CFI (cfiCond52) VB load(1, XDATA, add(CFA_XSP16, literal(-17)))
        CFI (cfiCond52) V0 load(1, XDATA, add(CFA_XSP16, literal(-16)))
        CFI (cfiCond52) V1 load(1, XDATA, add(CFA_XSP16, literal(-15)))
        CFI (cfiCond52) V2 load(1, XDATA, add(CFA_XSP16, literal(-14)))
        CFI (cfiCond52) V3 load(1, XDATA, add(CFA_XSP16, literal(-13)))
        CFI (cfiCond52) V4 load(1, XDATA, add(CFA_XSP16, literal(-12)))
        CFI (cfiCond52) V5 load(1, XDATA, add(CFA_XSP16, literal(-11)))
        CFI (cfiCond52) V6 load(1, XDATA, add(CFA_XSP16, literal(-10)))
        CFI (cfiCond52) V7 load(1, XDATA, add(CFA_XSP16, literal(-9)))
        CFI (cfiCond52) V8 load(1, XDATA, add(CFA_XSP16, literal(-8)))
        CFI (cfiCond52) V9 load(1, XDATA, add(CFA_XSP16, literal(-7)))
        CFI (cfiCond52) R7 load(1, XDATA, add(CFA_XSP16, literal(-6)))
        CFI (cfiCond52) ?RET_LOW load(1, XDATA, add(CFA_XSP16, literal(-5)))
        CFI (cfiCond52) ?RET_HIGH load(1, XDATA, add(CFA_XSP16, literal(-4)))
        CFI (cfiCond52) ?BRET_EXT load(1, XDATA, add(CFA_XSP16, literal(-3)))
        CFI (cfiCond52) DPL0 load(1, XDATA, add(CFA_XSP16, literal(-2)))
        CFI (cfiCond52) DPH0 load(1, XDATA, add(CFA_XSP16, literal(-1)))
        CFI (cfiCond52) CFA_SP SP+0
        CFI (cfiCond52) CFA_XSP16 add(XSP16, 20)
        CFI Block cfiCond53 Using cfiCommon0
        CFI (cfiCond53) NoFunction
        CFI (cfiCond53) Conditional ??CrossCallReturnLabel_17, ??CrossCallReturnLabel_1
        CFI (cfiCond53) R6 load(1, XDATA, add(CFA_XSP16, literal(-18)))
        CFI (cfiCond53) VB load(1, XDATA, add(CFA_XSP16, literal(-17)))
        CFI (cfiCond53) V0 load(1, XDATA, add(CFA_XSP16, literal(-16)))
        CFI (cfiCond53) V1 load(1, XDATA, add(CFA_XSP16, literal(-15)))
        CFI (cfiCond53) V2 load(1, XDATA, add(CFA_XSP16, literal(-14)))
        CFI (cfiCond53) V3 load(1, XDATA, add(CFA_XSP16, literal(-13)))
        CFI (cfiCond53) V4 load(1, XDATA, add(CFA_XSP16, literal(-12)))
        CFI (cfiCond53) V5 load(1, XDATA, add(CFA_XSP16, literal(-11)))
        CFI (cfiCond53) V6 load(1, XDATA, add(CFA_XSP16, literal(-10)))
        CFI (cfiCond53) V7 load(1, XDATA, add(CFA_XSP16, literal(-9)))
        CFI (cfiCond53) V8 load(1, XDATA, add(CFA_XSP16, literal(-8)))
        CFI (cfiCond53) V9 load(1, XDATA, add(CFA_XSP16, literal(-7)))
        CFI (cfiCond53) R7 load(1, XDATA, add(CFA_XSP16, literal(-6)))
        CFI (cfiCond53) ?RET_LOW load(1, XDATA, add(CFA_XSP16, literal(-5)))
        CFI (cfiCond53) ?RET_HIGH load(1, XDATA, add(CFA_XSP16, literal(-4)))
        CFI (cfiCond53) ?BRET_EXT load(1, XDATA, add(CFA_XSP16, literal(-3)))
        CFI (cfiCond53) DPL0 load(1, XDATA, add(CFA_XSP16, literal(-2)))
        CFI (cfiCond53) DPH0 load(1, XDATA, add(CFA_XSP16, literal(-1)))
        CFI (cfiCond53) CFA_SP SP+0
        CFI (cfiCond53) CFA_XSP16 add(XSP16, 20)
        CFI Block cfiPicker54 Using cfiCommon1
        CFI (cfiPicker54) NoFunction
        CFI (cfiPicker54) Picker
        MOV     DPL,?V0 + 4
        MOV     DPH,?V0 + 5
        MOVX    A,@DPTR
        MOV     R0,A
        INC     DPTR
        MOVX    A,@DPTR
        MOV     R1,A
        MOV     ?V0 + 6,R0
        MOV     ?V0 + 7,R1
        RET
        CFI EndBlock cfiCond50
        CFI EndBlock cfiCond51
        CFI EndBlock cfiCond52
        CFI EndBlock cfiCond53
        CFI EndBlock cfiPicker54
//  193 

        RSEG BANKED_CODE:CODE:NOROOT(0)
//  194 int printf(const char *format, ...)
printf:
        CFI Block cfiBlock55 Using cfiCommon0
        CFI Function printf
        CODE
//  195 {
        FUNCALL printf, print
        LOCFRAME ISTACK, 0, STACK
        LOCFRAME PSTACK, 0, STACK
        LOCFRAME XSTACK, 14, STACK
        LOCFRAME IOVERLAY, 0, STATIC
        LOCFRAME DOVERLAY, 0, STATIC
        ARGFRAME ISTACK, 0, STACK
        ARGFRAME PSTACK, 0, STACK
        ARGFRAME XSTACK, 14, STACK
        ARGFRAME IOVERLAY, 0, STATIC
        ARGFRAME DOVERLAY, 0, STATIC
        MOV     A,#-0xa
        LCALL   ?BANKED_ENTER_XDATA
        CFI DPH0 load(1, XDATA, add(CFA_XSP16, literal(-1)))
        CFI DPL0 load(1, XDATA, add(CFA_XSP16, literal(-2)))
        CFI ?BRET_EXT load(1, XDATA, add(CFA_XSP16, literal(-3)))
        CFI ?RET_HIGH load(1, XDATA, add(CFA_XSP16, literal(-4)))
        CFI ?RET_LOW load(1, XDATA, add(CFA_XSP16, literal(-5)))
        CFI R7 load(1, XDATA, add(CFA_XSP16, literal(-6)))
        CFI V1 load(1, XDATA, add(CFA_XSP16, literal(-7)))
        CFI V0 load(1, XDATA, add(CFA_XSP16, literal(-8)))
        CFI VB load(1, XDATA, add(CFA_XSP16, literal(-9)))
        CFI R6 load(1, XDATA, add(CFA_XSP16, literal(-10)))
        CFI CFA_SP SP+0
        CFI CFA_XSP16 add(XSP16, 10)
        ; Saved register size: 10
        ; Auto size: 2
        MOV     A,#-0x2
        LCALL   ?ALLOC_XSTACK8
        CFI CFA_XSP16 add(XSP16, 12)
//  196         va_list args;
//  197         
//  198         va_start( args, format );
        MOV     A,#0xc
        LCALL   ?XSTACK_DISP0_8
        LCALL   ?Subroutine5 & 0xFFFF
//  199         return print( 0, format, args );
??CrossCallReturnLabel_2:
        LCALL   ?PUSH_XSTACK_I_TWO
        CFI CFA_XSP16 add(XSP16, 14)
        MOV     A,R2
        MOV     R4,A
        MOV     A,R3
        MOV     R5,A
        MOV     R2,#0x0
        MOV     R3,#0x0
        LCALL   ??print?relay
        MOV     A,#0x2
        LCALL   ?DEALLOC_XSTACK8
        CFI CFA_XSP16 add(XSP16, 12)
        MOV     A,#0x2
        CFI EndBlock cfiBlock55
        REQUIRE ?Subroutine2
        ; // Fall through to label ?Subroutine2
//  200 }

        RSEG BANKED_CODE:CODE:NOROOT(0)
?Subroutine2:
        CFI Block cfiBlock56 Using cfiCommon0
        CFI NoFunction
        CFI CFA_SP SP+0
        CFI CFA_XSP16 add(XSP16, 12)
        CFI VB load(1, XDATA, add(CFA_XSP16, literal(-9)))
        CFI DPL0 load(1, XDATA, add(CFA_XSP16, literal(-2)))
        CFI DPH0 load(1, XDATA, add(CFA_XSP16, literal(-1)))
        CFI R6 load(1, XDATA, add(CFA_XSP16, literal(-10)))
        CFI R7 load(1, XDATA, add(CFA_XSP16, literal(-6)))
        CFI V0 load(1, XDATA, add(CFA_XSP16, literal(-8)))
        CFI V1 load(1, XDATA, add(CFA_XSP16, literal(-7)))
        CFI ?BRET_EXT load(1, XDATA, add(CFA_XSP16, literal(-3)))
        CFI ?RET_HIGH load(1, XDATA, add(CFA_XSP16, literal(-4)))
        CFI ?RET_LOW load(1, XDATA, add(CFA_XSP16, literal(-5)))
        CFI Invalid
        LCALL   ?DEALLOC_XSTACK8
        CFI CFA_XSP16 add(XSP16, 10)
        CFI Valid
        MOV     R7,#0x2
        LJMP    ?BANKED_LEAVE_XDATA
        CFI EndBlock cfiBlock56
//  201 

        RSEG BANKED_CODE:CODE:NOROOT(0)
//  202 int sprintf(char *out, const char *format, ...)
sprintf:
        CFI Block cfiBlock57 Using cfiCommon0
        CFI Function sprintf
        CODE
//  203 {
        FUNCALL sprintf, print
        LOCFRAME ISTACK, 0, STACK
        LOCFRAME PSTACK, 0, STACK
        LOCFRAME XSTACK, 16, STACK
        LOCFRAME IOVERLAY, 0, STATIC
        LOCFRAME DOVERLAY, 0, STATIC
        ARGFRAME ISTACK, 0, STACK
        ARGFRAME PSTACK, 0, STACK
        ARGFRAME XSTACK, 16, STACK
        ARGFRAME IOVERLAY, 0, STATIC
        ARGFRAME DOVERLAY, 0, STATIC
        MOV     A,#-0xa
        LCALL   ?BANKED_ENTER_XDATA
        CFI DPH0 load(1, XDATA, add(CFA_XSP16, literal(-1)))
        CFI DPL0 load(1, XDATA, add(CFA_XSP16, literal(-2)))
        CFI ?BRET_EXT load(1, XDATA, add(CFA_XSP16, literal(-3)))
        CFI ?RET_HIGH load(1, XDATA, add(CFA_XSP16, literal(-4)))
        CFI ?RET_LOW load(1, XDATA, add(CFA_XSP16, literal(-5)))
        CFI R7 load(1, XDATA, add(CFA_XSP16, literal(-6)))
        CFI V1 load(1, XDATA, add(CFA_XSP16, literal(-7)))
        CFI V0 load(1, XDATA, add(CFA_XSP16, literal(-8)))
        CFI VB load(1, XDATA, add(CFA_XSP16, literal(-9)))
        CFI R6 load(1, XDATA, add(CFA_XSP16, literal(-10)))
        CFI CFA_SP SP+0
        CFI CFA_XSP16 add(XSP16, 10)
        ; Saved register size: 10
        ; Auto size: 4
        MOV     A,#-0x4
        LCALL   ?ALLOC_XSTACK8
        CFI CFA_XSP16 add(XSP16, 14)
        MOV     A,#0x2
        LCALL   ?XSTACK_DISP0_8
        MOV     A,R2
        MOVX    @DPTR,A
        INC     DPTR
        MOV     A,R3
        MOVX    @DPTR,A
//  204         va_list args;
//  205         
//  206         va_start( args, format );
        MOV     A,#0xe
        LCALL   ?XSTACK_DISP0_8
        LCALL   ?Subroutine5 & 0xFFFF
//  207         return print( &out, format, args );
??CrossCallReturnLabel_3:
        LCALL   ?PUSH_XSTACK_I_TWO
        CFI CFA_XSP16 add(XSP16, 16)
        MOV     A,#0x4
        LCALL   ?XSTACK_DISP0_8
        MOV     R2,DPL
        MOV     R3,DPH
        LCALL   ??print?relay
        MOV     A,#0x2
        LCALL   ?DEALLOC_XSTACK8
        CFI CFA_XSP16 add(XSP16, 14)
        MOV     A,#0x4
        SJMP    ?Subroutine2
        CFI EndBlock cfiBlock57
//  208 }

        RSEG BANKED_CODE:CODE:NOROOT(0)
?Subroutine5:
        CFI Block cfiCond58 Using cfiCommon0
        CFI NoFunction
        CFI Conditional ??CrossCallReturnLabel_2
        CFI R6 load(1, XDATA, add(CFA_XSP16, literal(-10)))
        CFI VB load(1, XDATA, add(CFA_XSP16, literal(-9)))
        CFI V0 load(1, XDATA, add(CFA_XSP16, literal(-8)))
        CFI V1 load(1, XDATA, add(CFA_XSP16, literal(-7)))
        CFI R7 load(1, XDATA, add(CFA_XSP16, literal(-6)))
        CFI ?RET_LOW load(1, XDATA, add(CFA_XSP16, literal(-5)))
        CFI ?RET_HIGH load(1, XDATA, add(CFA_XSP16, literal(-4)))
        CFI ?BRET_EXT load(1, XDATA, add(CFA_XSP16, literal(-3)))
        CFI DPL0 load(1, XDATA, add(CFA_XSP16, literal(-2)))
        CFI DPH0 load(1, XDATA, add(CFA_XSP16, literal(-1)))
        CFI CFA_SP SP+0
        CFI CFA_XSP16 add(XSP16, 12)
        CFI Block cfiCond59 Using cfiCommon0
        CFI (cfiCond59) NoFunction
        CFI (cfiCond59) Conditional ??CrossCallReturnLabel_3
        CFI (cfiCond59) R6 load(1, XDATA, add(CFA_XSP16, literal(-10)))
        CFI (cfiCond59) VB load(1, XDATA, add(CFA_XSP16, literal(-9)))
        CFI (cfiCond59) V0 load(1, XDATA, add(CFA_XSP16, literal(-8)))
        CFI (cfiCond59) V1 load(1, XDATA, add(CFA_XSP16, literal(-7)))
        CFI (cfiCond59) R7 load(1, XDATA, add(CFA_XSP16, literal(-6)))
        CFI (cfiCond59) ?RET_LOW load(1, XDATA, add(CFA_XSP16, literal(-5)))
        CFI (cfiCond59) ?RET_HIGH load(1, XDATA, add(CFA_XSP16, literal(-4)))
        CFI (cfiCond59) ?BRET_EXT load(1, XDATA, add(CFA_XSP16, literal(-3)))
        CFI (cfiCond59) DPL0 load(1, XDATA, add(CFA_XSP16, literal(-2)))
        CFI (cfiCond59) DPH0 load(1, XDATA, add(CFA_XSP16, literal(-1)))
        CFI (cfiCond59) CFA_SP SP+0
        CFI (cfiCond59) CFA_XSP16 add(XSP16, 14)
        CFI Block cfiPicker60 Using cfiCommon1
        CFI (cfiPicker60) NoFunction
        CFI (cfiPicker60) Picker
        MOV     R0,DPL
        MOV     R1,DPH
        MOV     DPL,?XSP + 0
        MOV     DPH,?XSP + 1
        MOV     A,R0
        MOVX    @DPTR,A
        INC     DPTR
        MOV     A,R1
        MOVX    @DPTR,A
        ; Setup parameters for call to function print
        ; Setup parameters for call to function print
        MOV     DPL,?XSP + 0
        MOV     DPH,?XSP + 1
        MOV     ?V0 + 0,DPL
        MOV     ?V0 + 1,DPH
        MOV     R0,#?V0 + 0
        RET
        CFI EndBlock cfiCond58
        CFI EndBlock cfiCond59
        CFI EndBlock cfiPicker60

        RSEG BANK_RELAYS:CODE:REORDER:NOROOT(0)
??putchar?relay:
        LCALL   ?BDISPATCH
        DATA
        DC24    putchar

        RSEG BANK_RELAYS:CODE:REORDER:NOROOT(0)
??printchar?relay:
        LCALL   ?BDISPATCH
        DATA
        DC24    printchar

        RSEG BANK_RELAYS:CODE:REORDER:NOROOT(0)
??prints?relay:
        LCALL   ?BDISPATCH
        DATA
        DC24    prints

        RSEG BANK_RELAYS:CODE:REORDER:NOROOT(0)
??printi?relay:
        LCALL   ?BDISPATCH
        DATA
        DC24    printi

        RSEG BANK_RELAYS:CODE:REORDER:NOROOT(0)
??print?relay:
        LCALL   ?BDISPATCH
        DATA
        DC24    print

        RSEG BANK_RELAYS:CODE:REORDER:NOROOT(0)
??printf?relay:
        LCALL   ?BDISPATCH
        DATA
        DC24    printf

        RSEG BANK_RELAYS:CODE:REORDER:NOROOT(0)
??sprintf?relay:
        LCALL   ?BDISPATCH
        DATA
        DC24    sprintf

        RSEG XDATA_ROM_C:CONST:REORDER:NOROOT(0)
        DATA8
`?<Constant "(null)">`:
        DB "(null)"

        END
//  209 
//  210 #ifdef TEST_PRINTF
//  211 int main(void)
//  212 {
//  213 	char *ptr = "Hello world!";
//  214 	char *np = 0;
//  215 	int i = 5;
//  216 	unsigned int bs = sizeof(int)*8;
//  217 	int mi;
//  218 	//char buf[80];
//  219 
//  220 	mi = (1 << (bs-1)) + 1;
//  221 	printf("%s\n", ptr);
//  222 	printf("printf test\n");
//  223 	printf("%s is null pointer\n", np);
//  224 	printf("%d = 5\n", i);
//  225 	printf("%d = - max int\n", mi);
//  226 	printf("char %c = 'a'\n", 'a');
//  227 	printf("hex %x = ff\n", 0xff);
//  228 	printf("hex %02x = 00\n", 0);
//  229 	printf("signed %d = unsigned %u = hex %x\n", -3, -3, -3);
//  230 	printf("%d %s(s)%", 0, "message");
//  231 	printf("\n");
//  232 	printf("%d %s(s) with %%\n", 0, "message");
//  233 	sprintf(buf, "justif: \"%-10s\"\n", "left"); printf("%s", buf);
//  234 	sprintf(buf, "justif: \"%10s\"\n", "right"); printf("%s", buf);
//  235 	sprintf(buf, " 3: %04d zero padded\n", 3); printf("%s", buf);
//  236 	sprintf(buf, " 3: %-4d left justif.\n", 3); printf("%s", buf);
//  237 	sprintf(buf, " 3: %4d right justif.\n", 3); printf("%s", buf);
//  238 	sprintf(buf, "-3: %04d zero padded\n", -3); printf("%s", buf);
//  239 	sprintf(buf, "-3: %-4d left justif.\n", -3); printf("%s", buf);
//  240 	sprintf(buf, "-3: %4d right justif.\n", -3); printf("%s", buf);
//  241 
//  242 	return 0;
//  243 }
//  244 
//  245 /*
//  246  * if you compile this file with
//  247  *   gcc -Wall $(YOUR_C_OPTIONS) -DTEST_PRINTF -c printf.c
//  248  * you will get a normal warning:
//  249  *   printf.c:214: warning: spurious trailing `%' in format
//  250  * this line is testing an invalid % at the end of the format string.
//  251  *
//  252  * this should display (on 32bit int machine) :
//  253  *
//  254  * Hello world!
//  255  * printf test
//  256  * (null) is null pointer
//  257  * 5 = 5
//  258  * -2147483647 = - max int
//  259  * char a = 'a'
//  260  * hex ff = ff
//  261  * hex 00 = 00
//  262  * signed -3 = unsigned 4294967293 = hex fffffffd
//  263  * 0 message(s)
//  264  * 0 message(s) with %
//  265  * justif: "left      "
//  266  * justif: "     right"
//  267  *  3: 0003 zero padded
//  268  *  3: 3    left justif.
//  269  *  3:    3 right justif.
//  270  * -3: -003 zero padded
//  271  * -3: -3   left justif.
//  272  * -3:   -3 right justif.
//  273  */
//  274 
//  275 #endif
// 
// 1 456 bytes in segment BANKED_CODE
//    42 bytes in segment BANK_RELAYS
//     7 bytes in segment XDATA_ROM_C
// 
// 1 498 bytes of CODE  memory
//     7 bytes of CONST memory
//
//Errors: none
//Warnings: none
