///////////////////////////////////////////////////////////////////////////////
//                                                                            /
// IAR C/C++ Compiler V8.10.3.10338/W32 for 8051        14/Oct/2017  22:53:27 /
// Copyright 2004-2011 IAR Systems AB.                                        /
//                                                                            /
//    Core               =  plain                                             /
//    Code model         =  banked                                            /
//    Data model         =  large                                             /
//    Calling convention =  xdata reentrant                                   /
//    Constant location  =  data_rom                                          /
//    Dptr setup         =  1,16                                              /
//    Source file        =  C:\HomeController\Components\hal\target\CC2530EB\ /
//                          hal_key.c                                         /
//    Command line       =  -f C:\HomeController\Projects\zstack\Samples\Gene /
//                          ricApp\CC2530DB\..\..\..\Tools\CC2530DB\f8wEndev. /
//                          cfg (-DCPU32MHZ -DROOT=__near_func -DBLINK_LEDS)  /
//                          -f C:\HomeController\Projects\zstack\Samples\Gene /
//                          ricApp\CC2530DB\..\..\..\Tools\CC2530DB\f8wConfig /
//                          .cfg (-DSECURE=0 -DZG_SECURE_DYNAMIC=0            /
//                          -DREFLECTOR -DDEFAULT_CHANLIST=0x00004000         /
//                          -DZDAPP_CONFIG_PAN_ID=0xFFFF                      /
//                          -DNWK_START_DELAY=100 -DEXTENDED_JOINING_RANDOM_M /
//                          ASK=0x007F -DBEACON_REQUEST_DELAY=100             /
//                          -DBEACON_REQ_DELAY_MASK=0x00FF                    /
//                          -DROUTE_EXPIRY_TIME=30 -DAPSC_ACK_WAIT_DURATION_P /
//                          OLLED=3000 -DNWK_INDIRECT_MSG_TIMEOUT=7           /
//                          -DMAX_RREQ_ENTRIES=8 -DAPSC_MAX_FRAME_RETRIES=3   /
//                          -DNWK_MAX_DATA_RETRIES=2                          /
//                          -DMAX_POLL_FAILURE_RETRIES=2 -DMAX_BCAST=9        /
//                          -DAPS_MAX_GROUPS=16 -DMAX_RTG_ENTRIES=40          /
//                          -DNWK_MAX_BINDING_ENTRIES=4                       /
//                          -DMAX_BINDING_CLUSTER_IDS=4                       /
//                          "-DDEFAULT_KEY={0x01, 0x03, 0x05, 0x07, 0x09,     /
//                          0x0B, 0x0D, 0x0F, 0x00, 0x02, 0x04, 0x06, 0x08,   /
//                          0x0A, 0x0C, 0x0D}" -DMAC_MAX_FRAME_SIZE=116       /
//                          "-DCONST=const __code" -DGENERIC=__generic        /
//                          -DRFD_RCVC_ALWAYS_ON=FALSE -DPOLL_RATE=1000       /
//                          -DQUEUED_POLL_RATE=100 -DRESPONSE_POLL_RATE=100)  /
//                          -DREJOIN_POLL_RATE=440 C:\HomeController\Componen /
//                          ts\hal\target\CC2530EB\hal_key.c -D ZIGBEEPRO -D  /
//                          NWK_AUTO_POLL -D ZTOOL_P1 -D MT_TASK -D           /
//                          MT_SYS_FUNC -D MT_ZDO_FUNC -D                     /
//                          LCD_SUPPORTED=DEBUG -D xPOWER_SAVING -lC          /
//                          C:\HomeController\Projects\zstack\Samples\Generic /
//                          App\CC2530DB\EndDeviceEB-Pro\List\ -lA            /
//                          C:\HomeController\Projects\zstack\Samples\Generic /
//                          App\CC2530DB\EndDeviceEB-Pro\List\                /
//                          --diag_suppress Pe001,Pa010 -o                    /
//                          C:\HomeController\Projects\zstack\Samples\Generic /
//                          App\CC2530DB\EndDeviceEB-Pro\Obj\ -e --debug      /
//                          --core=plain --dptr=16,1 --data_model=large       /
//                          --code_model=banked --calling_convention=xdata_re /
//                          entrant --place_constants=data_rom                /
//                          --nr_virtual_regs 16 -I                           /
//                          C:\HomeController\Projects\zstack\Samples\Generic /
//                          App\CC2530DB\ -I C:\HomeController\Projects\zstac /
//                          k\Samples\GenericApp\CC2530DB\..\SOURCE\ -I       /
//                          C:\HomeController\Projects\zstack\Samples\Generic /
//                          App\CC2530DB\..\..\..\ZMAIN\TI2530DB\ -I          /
//                          C:\HomeController\Projects\zstack\Samples\Generic /
//                          App\CC2530DB\..\..\..\..\..\COMPONENTS\MT\ -I     /
//                          C:\HomeController\Projects\zstack\Samples\Generic /
//                          App\CC2530DB\..\..\..\..\..\COMPONENTS\HAL\INCLUD /
//                          E\ -I C:\HomeController\Projects\zstack\Samples\G /
//                          enericApp\CC2530DB\..\..\..\..\..\COMPONENTS\HAL\ /
//                          TARGET\CC2530EB\ -I C:\HomeController\Projects\zs /
//                          tack\Samples\GenericApp\CC2530DB\..\..\..\..\..\C /
//                          OMPONENTS\OSAL\MCU\CCSOC\ -I                      /
//                          C:\HomeController\Projects\zstack\Samples\Generic /
//                          App\CC2530DB\..\..\..\..\..\COMPONENTS\OSAL\INCLU /
//                          DE\ -I C:\HomeController\Projects\zstack\Samples\ /
//                          GenericApp\CC2530DB\..\..\..\..\..\COMPONENTS\STA /
//                          CK\AF\ -I C:\HomeController\Projects\zstack\Sampl /
//                          es\GenericApp\CC2530DB\..\..\..\..\..\COMPONENTS\ /
//                          STACK\NWK\ -I C:\HomeController\Projects\zstack\S /
//                          amples\GenericApp\CC2530DB\..\..\..\..\..\COMPONE /
//                          NTS\STACK\SEC\ -I C:\HomeController\Projects\zsta /
//                          ck\Samples\GenericApp\CC2530DB\..\..\..\..\..\COM /
//                          PONENTS\STACK\SAPI\ -I C:\HomeController\Projects /
//                          \zstack\Samples\GenericApp\CC2530DB\..\..\..\..\. /
//                          .\COMPONENTS\STACK\SYS\ -I                        /
//                          C:\HomeController\Projects\zstack\Samples\Generic /
//                          App\CC2530DB\..\..\..\..\..\COMPONENTS\STACK\ZDO\ /
//                           -I C:\HomeController\Projects\zstack\Samples\Gen /
//                          ericApp\CC2530DB\..\..\..\..\..\COMPONENTS\ZMAC\F /
//                          8W\ -I C:\HomeController\Projects\zstack\Samples\ /
//                          GenericApp\CC2530DB\..\..\..\..\..\COMPONENTS\ZMA /
//                          C\ -I C:\HomeController\Projects\zstack\Samples\G /
//                          enericApp\CC2530DB\..\..\..\..\..\COMPONENTS\SERV /
//                          ICES\SADDR\ -I C:\HomeController\Projects\zstack\ /
//                          Samples\GenericApp\CC2530DB\..\..\..\..\..\COMPON /
//                          ENTS\SERVICES\SDATA\ -I                           /
//                          C:\HomeController\Projects\zstack\Samples\Generic /
//                          App\CC2530DB\..\..\..\..\..\COMPONENTS\MAC\INCLUD /
//                          E\ -I C:\HomeController\Projects\zstack\Samples\G /
//                          enericApp\CC2530DB\..\..\..\..\..\COMPONENTS\MAC\ /
//                          HIGH_LEVEL\ -I C:\HomeController\Projects\zstack\ /
//                          Samples\GenericApp\CC2530DB\..\..\..\..\..\COMPON /
//                          ENTS\MAC\LOW_LEVEL\srf04\ -I                      /
//                          C:\HomeController\Projects\zstack\Samples\Generic /
//                          App\CC2530DB\..\..\..\..\..\COMPONENTS\MAC\LOW_LE /
//                          VEL\srf04\SINGLE_CHIP\ -Ohz --require_prototypes  /
//    List file          =  C:\HomeController\Projects\zstack\Samples\Generic /
//                          App\CC2530DB\EndDeviceEB-Pro\List\hal_key.s51     /
//                                                                            /
//                                                                            /
///////////////////////////////////////////////////////////////////////////////

        NAME hal_key

        RTMODEL "__SystemLibrary", "CLib"
        RTMODEL "__calling_convention", "xdata_reentrant"
        RTMODEL "__code_model", "banked"
        RTMODEL "__core", "plain"
        RTMODEL "__data_model", "large"
        RTMODEL "__dptr_size", "16"
        RTMODEL "__extended_stack", "disabled"
        RTMODEL "__location_for_constants", "data"
        RTMODEL "__number_of_dptrs", "1"
        RTMODEL "__rt_version", "1"

        RSEG DOVERLAY:DATA:NOROOT(0)
        RSEG IOVERLAY:IDATA:NOROOT(0)
        RSEG ISTACK:IDATA:NOROOT(0)
        RSEG PSTACK:XDATA:NOROOT(0)
        RSEG XSTACK:XDATA:NOROOT(0)

        EXTERN ?BANKED_ENTER_XDATA
        EXTERN ?BANKED_LEAVE_XDATA
        EXTERN ?BDISPATCH
        EXTERN ?BRET
        EXTERN ?CALL_IND
        EXTERN ?INTERRUPT_ENTER_XSP
        EXTERN ?INTERRUPT_LEAVE_XSP
        EXTERN ?S_SHL
        EXTERN ?V0
        EXTERN __INIT_XDATA_Z

        PUBLIC ??HalKeyConfig?relay
        FUNCTION ??HalKeyConfig?relay,0203H
        PUBLIC ??HalKeyEnterSleep?relay
        FUNCTION ??HalKeyEnterSleep?relay,0203H
        PUBLIC ??HalKeyExitSleep?relay
        FUNCTION ??HalKeyExitSleep?relay,0203H
        PUBLIC ??HalKeyInit?relay
        FUNCTION ??HalKeyInit?relay,0203H
        PUBLIC ??HalKeyPoll?relay
        FUNCTION ??HalKeyPoll?relay,0203H
        PUBLIC ??HalKeyRead?relay
        FUNCTION ??HalKeyRead?relay,0203H
        PUBLIC ??diffKeys?relay
        FUNCTION ??diffKeys?relay,0203H
        PUBWEAK `??halKeyPort0Isr??INTVEC 107`
        PUBWEAK `??halKeyPort2Isr??INTVEC 51`
        PUBLIC ??halProcessKeyInterrupt?relay
        FUNCTION ??halProcessKeyInterrupt?relay,0203H
        PUBLIC HalKeyConfig
        FUNCTION HalKeyConfig,021203H
        ARGFRAME XSTACK, 0, STACK
        LOCFRAME XSTACK, 9, STACK
        PUBLIC HalKeyEnterSleep
        FUNCTION HalKeyEnterSleep,0203H
        ARGFRAME XSTACK, 0, STACK
        PUBLIC HalKeyExitSleep
        FUNCTION HalKeyExitSleep,021203H
        ARGFRAME XSTACK, 0, STACK
        LOCFRAME ISTACK, 2, STACK
        PUBLIC HalKeyInit
        FUNCTION HalKeyInit,0203H
        ARGFRAME XSTACK, 0, STACK
        LOCFRAME ISTACK, 2, STACK
        PUBLIC HalKeyPoll
        FUNCTION HalKeyPoll,021203H
        ARGFRAME XSTACK, 0, STACK
        LOCFRAME XSTACK, 9, STACK
        PUBLIC HalKeyRead
        FUNCTION HalKeyRead,0203H
        ARGFRAME XSTACK, 9, STACK
        ARGFRAME IOVERLAY, 0, STATIC
        ARGFRAME DOVERLAY, 0, STATIC
        PUBLIC Hal_KeyIntEnable
        PUBWEAK P0DIR
        PUBWEAK P0IEN
        PUBWEAK P0IFG
        PUBWEAK P0INP
        PUBWEAK P0SEL
        PUBWEAK PICTL
        PUBWEAK _A_IEN0
        PUBWEAK _A_IEN1
        PUBWEAK _A_IRCON
        PUBWEAK _A_IRCON2
        PUBWEAK _A_P0
        PUBLIC diffKeys
        FUNCTION diffKeys,0203H
        ARGFRAME XSTACK, 9, STACK
        ARGFRAME IOVERLAY, 0, STATIC
        ARGFRAME DOVERLAY, 0, STATIC
        LOCFRAME XSTACK, 10, STACK
        PUBLIC halKeyPort0Isr
        FUNCTION halKeyPort0Isr,021233H
        ARGFRAME XSTACK, 0, STACK
        LOCFRAME XSTACK, 14, STACK
        PUBLIC halKeyPort2Isr
        FUNCTION halKeyPort2Isr,0233H
        ARGFRAME XSTACK, 0, STACK
        LOCFRAME ISTACK, 1, STACK
        PUBLIC halProcessKeyInterrupt
        FUNCTION halProcessKeyInterrupt,021203H
        ARGFRAME XSTACK, 14, STACK
        ARGFRAME IOVERLAY, 0, STATIC
        ARGFRAME DOVERLAY, 0, STATIC
        LOCFRAME ISTACK, 2, STACK
        
        CFI Names cfiNames0
        CFI StackFrame CFA_SP SP IDATA
        CFI StackFrame CFA_PSP16 PSP16 XDATA
        CFI StackFrame CFA_XSP16 XSP16 XDATA
        CFI StaticOverlayFrame CFA_IOVERLAY IOVERLAY
        CFI StaticOverlayFrame CFA_DOVERLAY DOVERLAY
        CFI Resource `PSW.CY`:1, `B.BR0`:1, `B.BR1`:1, `B.BR2`:1, `B.BR3`:1
        CFI Resource `B.BR4`:1, `B.BR5`:1, `B.BR6`:1, `B.BR7`:1, `VB.BR8`:1
        CFI Resource `VB.BR9`:1, `VB.BR10`:1, `VB.BR11`:1, `VB.BR12`:1
        CFI Resource `VB.BR13`:1, `VB.BR14`:1, `VB.BR15`:1, VB:8, B:8, A:8
        CFI Resource PSW:8, DPL0:8, DPH0:8, R0:8, R1:8, R2:8, R3:8, R4:8, R5:8
        CFI Resource R6:8, R7:8, V0:8, V1:8, V2:8, V3:8, V4:8, V5:8, V6:8, V7:8
        CFI Resource V8:8, V9:8, V10:8, V11:8, V12:8, V13:8, V14:8, V15:8, SP:8
        CFI Resource PSPH:8, PSPL:8, PSP16:16, XSPH:8, XSPL:8, XSP16:16
        CFI VirtualResource ?RET:24
        CFI Resource ?BRET_EXT:8
        CFI VirtualResource ?RET_HIGH:8, ?RET_LOW:8
        CFI ResourceParts PSP16 PSPH, PSPL
        CFI ResourceParts XSP16 XSPH, XSPL
        CFI ResourceParts ?RET ?BRET_EXT, ?RET_HIGH, ?RET_LOW
        CFI EndNames cfiNames0
        
        CFI Common cfiCommon0 Using cfiNames0
        CFI CodeAlign 1
        CFI DataAlign -1
        CFI ReturnAddress ?RET CODE
        CFI CFA_DOVERLAY Used
        CFI CFA_IOVERLAY Used
        CFI CFA_SP SP+-3
        CFI CFA_PSP16 PSP16+0
        CFI CFA_XSP16 XSP16+0
        CFI `PSW.CY` SameValue
        CFI `B.BR0` SameValue
        CFI `B.BR1` SameValue
        CFI `B.BR2` SameValue
        CFI `B.BR3` SameValue
        CFI `B.BR4` SameValue
        CFI `B.BR5` SameValue
        CFI `B.BR6` SameValue
        CFI `B.BR7` SameValue
        CFI `VB.BR8` SameValue
        CFI `VB.BR9` SameValue
        CFI `VB.BR10` SameValue
        CFI `VB.BR11` SameValue
        CFI `VB.BR12` SameValue
        CFI `VB.BR13` SameValue
        CFI `VB.BR14` SameValue
        CFI `VB.BR15` SameValue
        CFI VB SameValue
        CFI B Undefined
        CFI A Undefined
        CFI PSW SameValue
        CFI DPL0 SameValue
        CFI DPH0 SameValue
        CFI R0 Undefined
        CFI R1 Undefined
        CFI R2 Undefined
        CFI R3 Undefined
        CFI R4 Undefined
        CFI R5 Undefined
        CFI R6 SameValue
        CFI R7 SameValue
        CFI V0 SameValue
        CFI V1 SameValue
        CFI V2 SameValue
        CFI V3 SameValue
        CFI V4 SameValue
        CFI V5 SameValue
        CFI V6 SameValue
        CFI V7 SameValue
        CFI V8 SameValue
        CFI V9 SameValue
        CFI V10 SameValue
        CFI V11 SameValue
        CFI V12 SameValue
        CFI V13 SameValue
        CFI V14 SameValue
        CFI V15 SameValue
        CFI PSPH Undefined
        CFI PSPL Undefined
        CFI XSPH Undefined
        CFI XSPL Undefined
        CFI ?RET Concat
        CFI ?BRET_EXT Frame(CFA_SP, 3)
        CFI ?RET_HIGH Frame(CFA_SP, 2)
        CFI ?RET_LOW Frame(CFA_SP, 1)
        CFI EndCommon cfiCommon0
        
        
        CFI Common cfiCommon1 Using cfiNames0
        CFI CodeAlign 1
        CFI DataAlign -1
        CFI ReturnAddress ?RET CODE
        CFI CFA_DOVERLAY Used
        CFI CFA_IOVERLAY Used
        CFI CFA_SP SP+-2
        CFI CFA_PSP16 PSP16+0
        CFI CFA_XSP16 XSP16+0
        CFI `PSW.CY` SameValue
        CFI `B.BR0` SameValue
        CFI `B.BR1` SameValue
        CFI `B.BR2` SameValue
        CFI `B.BR3` SameValue
        CFI `B.BR4` SameValue
        CFI `B.BR5` SameValue
        CFI `B.BR6` SameValue
        CFI `B.BR7` SameValue
        CFI `VB.BR8` SameValue
        CFI `VB.BR9` SameValue
        CFI `VB.BR10` SameValue
        CFI `VB.BR11` SameValue
        CFI `VB.BR12` SameValue
        CFI `VB.BR13` SameValue
        CFI `VB.BR14` SameValue
        CFI `VB.BR15` SameValue
        CFI VB SameValue
        CFI B SameValue
        CFI A SameValue
        CFI PSW SameValue
        CFI DPL0 SameValue
        CFI DPH0 SameValue
        CFI R0 SameValue
        CFI R1 SameValue
        CFI R2 SameValue
        CFI R3 SameValue
        CFI R4 SameValue
        CFI R5 SameValue
        CFI R6 SameValue
        CFI R7 SameValue
        CFI V0 SameValue
        CFI V1 SameValue
        CFI V2 SameValue
        CFI V3 SameValue
        CFI V4 SameValue
        CFI V5 SameValue
        CFI V6 SameValue
        CFI V7 SameValue
        CFI V8 SameValue
        CFI V9 SameValue
        CFI V10 SameValue
        CFI V11 SameValue
        CFI V12 SameValue
        CFI V13 SameValue
        CFI V14 SameValue
        CFI V15 SameValue
        CFI PSPH Undefined
        CFI PSPL Undefined
        CFI XSPH Undefined
        CFI XSPL Undefined
        CFI ?RET Concat
        CFI ?BRET_EXT SameValue
        CFI ?RET_HIGH Frame(CFA_SP, 2)
        CFI ?RET_LOW Frame(CFA_SP, 1)
        CFI EndCommon cfiCommon1
        
printf              SYMBOL "printf"
osal_stop_timerEx   SYMBOL "osal_stop_timerEx"
osal_start_timerEx  SYMBOL "osal_start_timerEx"
SysPowerMode        SYMBOL "SysPowerMode"
??SysPowerMode?relay SYMBOL "?relay", SysPowerMode
??osal_start_timerEx?relay SYMBOL "?relay", osal_start_timerEx
??osal_stop_timerEx?relay SYMBOL "?relay", osal_stop_timerEx
??printf?relay      SYMBOL "?relay", printf
HalKeyConfig        SYMBOL "HalKeyConfig"
??HalKeyConfig?relay SYMBOL "?relay", HalKeyConfig
HalKeyEnterSleep    SYMBOL "HalKeyEnterSleep"
??HalKeyEnterSleep?relay SYMBOL "?relay", HalKeyEnterSleep
HalKeyExitSleep     SYMBOL "HalKeyExitSleep"
??HalKeyExitSleep?relay SYMBOL "?relay", HalKeyExitSleep
HalKeyInit          SYMBOL "HalKeyInit"
??HalKeyInit?relay  SYMBOL "?relay", HalKeyInit
HalKeyPoll          SYMBOL "HalKeyPoll"
??HalKeyPoll?relay  SYMBOL "?relay", HalKeyPoll
HalKeyRead          SYMBOL "HalKeyRead"
??HalKeyRead?relay  SYMBOL "?relay", HalKeyRead
diffKeys            SYMBOL "diffKeys"
??diffKeys?relay    SYMBOL "?relay", diffKeys
halKeyPort0Isr      SYMBOL "halKeyPort0Isr"
`??halKeyPort0Isr??INTVEC 107` SYMBOL "??INTVEC 107", halKeyPort0Isr
halKeyPort2Isr      SYMBOL "halKeyPort2Isr"
`??halKeyPort2Isr??INTVEC 51` SYMBOL "??INTVEC 51", halKeyPort2Isr
halProcessKeyInterrupt SYMBOL "halProcessKeyInterrupt"
??halProcessKeyInterrupt?relay SYMBOL "?relay", halProcessKeyInterrupt

        EXTERN printf
        FUNCTION printf,0202H
        ARGFRAME ISTACK, 0, STACK
        ARGFRAME PSTACK, 0, STACK
        ARGFRAME XSTACK, 14, STACK
        ARGFRAME IOVERLAY, 0, STATIC
        ARGFRAME DOVERLAY, 0, STATIC
        EXTERN osal_stop_timerEx
        FUNCTION osal_stop_timerEx,0202H
        ARGFRAME ISTACK, 0, STACK
        ARGFRAME PSTACK, 0, STACK
        ARGFRAME XSTACK, 9, STACK
        ARGFRAME IOVERLAY, 0, STATIC
        ARGFRAME DOVERLAY, 0, STATIC
        EXTERN osal_start_timerEx
        FUNCTION osal_start_timerEx,0202H
        ARGFRAME ISTACK, 2, STACK
        ARGFRAME PSTACK, 0, STACK
        ARGFRAME XSTACK, 9, STACK
        ARGFRAME IOVERLAY, 0, STATIC
        ARGFRAME DOVERLAY, 0, STATIC
        EXTERN SysPowerMode
        FUNCTION SysPowerMode,0202H
        ARGFRAME ISTACK, 0, STACK
        ARGFRAME PSTACK, 0, STACK
        ARGFRAME XSTACK, 14, STACK
        ARGFRAME IOVERLAY, 0, STATIC
        ARGFRAME DOVERLAY, 0, STATIC
        EXTERN ??SysPowerMode?relay
        FUNCTION ??SysPowerMode?relay,00H
        EXTERN ??osal_start_timerEx?relay
        FUNCTION ??osal_start_timerEx?relay,00H
        EXTERN ??osal_stop_timerEx?relay
        FUNCTION ??osal_stop_timerEx?relay,00H
        EXTERN ??printf?relay
        FUNCTION ??printf?relay,00H
        EXTERN Hal_TaskID

// C:\HomeController\Components\hal\target\CC2530EB\hal_key.c
//    1 /**************************************************************************************************
//    2   Filename:       hal_key.c
//    3   Revised:        $Date: 2009-12-16 17:44:49 -0800 (Wed, 16 Dec 2009) $
//    4   Revision:       $Revision: 21351 $
//    5 
//    6   Description:    This file contains the interface to the HAL KEY Service.
//    7 
//    8 
//    9   Copyright 2006-2009 Texas Instruments Incorporated. All rights reserved.
//   10 
//   11   IMPORTANT: Your use of this Software is limited to those specific rights
//   12   granted under the terms of a software license agreement between the user
//   13   who downloaded the software, his/her employer (which must be your employer)
//   14   and Texas Instruments Incorporated (the "License").  You may not use this
//   15   Software unless you agree to abide by the terms of the License. The License
//   16   limits your use, and you acknowledge, that the Software may not be modified,
//   17   copied or distributed unless embedded on a Texas Instruments microcontroller
//   18   or used solely and exclusively in conjunction with a Texas Instruments radio
//   19   frequency transceiver, which is integrated into your product.  Other than for
//   20   the foregoing purpose, you may not use, reproduce, copy, prepare derivative
//   21   works of, modify, distribute, perform, display or sell this Software and/or
//   22   its documentation for any purpose.
//   23 
//   24   YOU FURTHER ACKNOWLEDGE AND AGREE THAT THE SOFTWARE AND DOCUMENTATION ARE
//   25   PROVIDED AS IS?WITHOUT WARRANTY OF ANY KIND, EITHER EXPRESS OR IMPLIED,
//   26   INCLUDING WITHOUT LIMITATION, ANY WARRANTY OF MERCHANTABILITY, TITLE,
//   27   NON-INFRINGEMENT AND FITNESS FOR A PARTICULAR PURPOSE. IN NO EVENT SHALL
//   28   TEXAS INSTRUMENTS OR ITS LICENSORS BE LIABLE OR OBLIGATED UNDER CONTRACT,
//   29   NEGLIGENCE, STRICT LIABILITY, CONTRIBUTION, BREACH OF WARRANTY, OR OTHER
//   30   LEGAL EQUITABLE THEORY ANY DIRECT OR INDIRECT DAMAGES OR EXPENSES
//   31   INCLUDING BUT NOT LIMITED TO ANY INCIDENTAL, SPECIAL, INDIRECT, PUNITIVE
//   32   OR CONSEQUENTIAL DAMAGES, LOST PROFITS OR LOST DATA, COST OF PROCUREMENT
//   33   OF SUBSTITUTE GOODS, TECHNOLOGY, SERVICES, OR ANY CLAIMS BY THIRD PARTIES
//   34   (INCLUDING BUT NOT LIMITED TO ANY DEFENSE THEREOF), OR OTHER SIMILAR COSTS.
//   35 
//   36   Should you have any questions regarding your right to use this Software,
//   37   contact Texas Instruments Incorporated at www.TI.com.
//   38 **************************************************************************************************/
//   39 /*********************************************************************
//   40  NOTE: If polling is used, the hal_driver task schedules the KeyRead()
//   41        to occur every 100ms.  This should be long enough to naturally
//   42        debounce the keys.  The KeyRead() function remembers the key
//   43        state of the previous poll and will only return a non-zero
//   44        value if the key state changes.
//   45 
//   46  NOTE: If interrupts are used, the KeyRead() function is scheduled
//   47        25ms after the interrupt occurs by the ISR.  This delay is used
//   48        for key debouncing.  The ISR disables any further Key interrupt
//   49        until KeyRead() is executed.  KeyRead() will re-enable Key
//   50        interrupts after executing.  Unlike polling, when interrupts
//   51        are enabled, the previous key state is not remembered.  This
//   52        means that KeyRead() will return the current state of the keys
//   53        (not a change in state of the keys).
//   54 
//   55  NOTE: If interrupts are used, the KeyRead() fucntion is scheduled by
//   56        the ISR.  Therefore, the joystick movements will only be detected
//   57        during a pushbutton interrupt caused by S1 or the center joystick
//   58        pushbutton.
//   59 
//   60  NOTE: When a switch like S1 is pushed, the S1 signal goes from a normally
//   61        high state to a low state.  This transition is typically clean.  The
//   62        duration of the low state is around 200ms.  When the signal returns
//   63        to the high state, there is a high likelihood of signal bounce, which
//   64        causes a unwanted interrupts.  Normally, we would set the interrupt
//   65        edge to falling edge to generate an interrupt when S1 is pushed, but
//   66        because of the signal bounce, it is better to set the edge to rising
//   67        edge to generate an interrupt when S1 is released.  The debounce logic
//   68        can then filter out the signal bounce.  The result is that we typically
//   69        get only 1 interrupt per button push.  This mechanism is not totally
//   70        foolproof because occasionally, signal bound occurs during the falling
//   71        edge as well.  A similar mechanism is used to handle the joystick
//   72        pushbutton on the DB.  For the EB, we do not have independent control
//   73        of the interrupt edge for the S1 and center joystick pushbutton.  As
//   74        a result, only one or the other pushbuttons work reasonably well with
//   75        interrupts.  The default is the make the S1 switch on the EB work more
//   76        reliably.
//   77 
//   78 *********************************************************************/
//   79 
//   80 /**************************************************************************************************
//   81  *                                            INCLUDES
//   82  **************************************************************************************************/
//   83 #include "hal_mcu.h"

        ASEGN SFR_AN:DATA:NOROOT,080H
// union <unnamed> volatile __sfr _A_P0
_A_P0:
        DATA8
        DS 1

        ASEGN SFR_AN:DATA:NOROOT,089H
// unsigned char volatile __sfr P0IFG
P0IFG:
        DATA8
        DS 1

        ASEGN SFR_AN:DATA:NOROOT,08cH
// unsigned char volatile __sfr PICTL
PICTL:
        DATA8
        DS 1

        ASEGN SFR_AN:DATA:NOROOT,08fH
// unsigned char volatile __sfr P0INP
P0INP:
        DATA8
        DS 1

        ASEGN SFR_AN:DATA:NOROOT,0a8H
// union <unnamed> volatile __sfr _A_IEN0
_A_IEN0:
        DATA8
        DS 1

        ASEGN SFR_AN:DATA:NOROOT,0abH
// unsigned char volatile __sfr P0IEN
P0IEN:
        DATA8
        DS 1

        ASEGN SFR_AN:DATA:NOROOT,0b8H
// union <unnamed> volatile __sfr _A_IEN1
_A_IEN1:
        DATA8
        DS 1

        ASEGN SFR_AN:DATA:NOROOT,0c0H
// union <unnamed> volatile __sfr _A_IRCON
_A_IRCON:
        DATA8
        DS 1

        ASEGN SFR_AN:DATA:NOROOT,0e8H
// union <unnamed> volatile __sfr _A_IRCON2
_A_IRCON2:
        DATA8
        DS 1

        ASEGN SFR_AN:DATA:NOROOT,0f3H
// unsigned char volatile __sfr P0SEL
P0SEL:
        DATA8
        DS 1

        ASEGN SFR_AN:DATA:NOROOT,0fdH
// unsigned char volatile __sfr P0DIR
P0DIR:
        DATA8
        DS 1
//   84 #include "hal_defs.h"
//   85 #include "hal_types.h"
//   86 #include "hal_board.h"
//   87 #include "hal_drivers.h"
//   88 #include "hal_adc.h"
//   89 #include "hal_key.h"
//   90 #include "osal.h"
//   91 
//   92 #include "user_printf.h"
//   93 
//   94 #if (defined HAL_KEY) && (HAL_KEY == TRUE)
//   95 
//   96 /**************************************************************************************************
//   97  *                                              MACROS
//   98  **************************************************************************************************/
//   99 
//  100 /**************************************************************************************************
//  101  *                                            CONSTANTS
//  102  **************************************************************************************************/
//  103 #define HAL_KEY_RISING_EDGE   0
//  104 #define HAL_KEY_FALLING_EDGE  1
//  105 
//  106 #define HAL_KEY_DEBOUNCE_VALUE  25
//  107 #define HAL_KEY_POLLING_VALUE   100
//  108 
//  109 /* CPU port interrupt */
//  110 #define HAL_KEY_CPU_PORT_0_IF P0IF
//  111 #define HAL_KEY_CPU_PORT_2_IF P2IF
//  112 
//  113 
//  114 
//  115 /**************************************************************************************************
//  116  *                                            TYPEDEFS
//  117  **************************************************************************************************/
//  118 
//  119 
//  120 /**************************************************************************************************
//  121  *                                        GLOBAL VARIABLES
//  122  **************************************************************************************************/

        RSEG XDATA_Z:XDATA:NOROOT(0)
        DATA8
//  123 static uint8 halKeySavedKeys;     /* used to store previous key state in polling mode */
halKeySavedKeys:
        DS 1
        REQUIRE __INIT_XDATA_Z

        RSEG XDATA_Z:XDATA:NOROOT(0)
        DATA8
//  124 static uint8 mySavedKeys;
mySavedKeys:
        DS 1
        REQUIRE __INIT_XDATA_Z
//  125 

        RSEG XDATA_Z:XDATA:NOROOT(0)
        DATA16
//  126 static halKeyCBack_t pHalKeyProcessFunction;
pHalKeyProcessFunction:
        DS 2
        REQUIRE __INIT_XDATA_Z

        RSEG XDATA_Z:XDATA:NOROOT(0)
        DATA8
//  127 static uint8 HalKeyConfigured;
HalKeyConfigured:
        DS 1
        REQUIRE __INIT_XDATA_Z

        RSEG XDATA_Z:XDATA:NOROOT(0)
        DATA8
//  128 bool Hal_KeyIntEnable;            /* interrupt enable/disable flag */
Hal_KeyIntEnable:
        DS 1
        REQUIRE __INIT_XDATA_Z
//  129 
//  130 /**************************************************************************************************
//  131  *                                        FUNCTIONS - Local
//  132  **************************************************************************************************/
//  133 void halProcessKeyInterrupt(void);
//  134 uint8 halGetJoyKeyInput(void);
//  135 
//  136 
//  137 
//  138 /**************************************************************************************************
//  139  *                                        FUNCTIONS - API
//  140  **************************************************************************************************/
//  141 
//  142 
//  143 /**************************************************************************************************
//  144  * @fn      HalKeyInit
//  145  *
//  146  * @brief   Initilize Key Service
//  147  *
//  148  * @param   none
//  149  *
//  150  * @return  None
//  151  **************************************************************************************************/

        RSEG BANKED_CODE:CODE:NOROOT(0)
//  152 void HalKeyInit( void )
HalKeyInit:
        CFI Block cfiBlock0 Using cfiCommon0
        CFI Function HalKeyInit
        CODE
//  153 {
        PUSH    DPL
        CFI DPL0 Frame(CFA_SP, 4)
        CFI CFA_SP SP+-4
        PUSH    DPH
        CFI DPH0 Frame(CFA_SP, 5)
        CFI CFA_SP SP+-5
        ; Saved register size: 2
        ; Auto size: 0
//  154   /* Initialize previous key to 0 */
//  155   halKeySavedKeys = 0;
        MOV     DPTR,#halKeySavedKeys
        CLR     A
        MOVX    @DPTR,A
//  156   mySavedKeys = 0;
        MOV     DPTR,#mySavedKeys
        MOVX    @DPTR,A
//  157 
//  158   /* Initialize callback function */
//  159   pHalKeyProcessFunction  = NULL;
        MOV     DPTR,#pHalKeyProcessFunction
        MOVX    @DPTR,A
        INC     DPTR
        MOVX    @DPTR,A
//  160 
//  161   /* Start with key is not configured */
//  162   HalKeyConfigured = FALSE;
        MOV     DPTR,#HalKeyConfigured
        MOVX    @DPTR,A
        CFI EndBlock cfiBlock0
//  163 }
        REQUIRE ?Subroutine0
        ; // Fall through to label ?Subroutine0

        RSEG BANKED_CODE:CODE:NOROOT(0)
?Subroutine0:
        CFI Block cfiBlock1 Using cfiCommon0
        CFI NoFunction
        CFI CFA_SP SP+-5
        CFI DPL0 Frame(CFA_SP, 4)
        CFI DPH0 Frame(CFA_SP, 5)
        POP     DPH
        CFI CFA_SP SP+-4
        CFI DPH0 SameValue
        POP     DPL
        CFI CFA_SP SP+-3
        CFI DPL0 SameValue
        LJMP    ?BRET
        CFI EndBlock cfiBlock1
//  164 
//  165 
//  166 /**************************************************************************************************
//  167  * @fn      HalKeyConfig
//  168  *
//  169  * @brief   Configure the Key serivce
//  170  *
//  171  * @param   interruptEnable - TRUE/FALSE, enable/disable interrupt
//  172  *          cback - pointer to the CallBack function
//  173  *
//  174  * @return  None
//  175  **************************************************************************************************/

        RSEG BANKED_CODE:CODE:NOROOT(0)
//  176 void HalKeyConfig (bool interruptEnable, halKeyCBack_t cback)
HalKeyConfig:
        CFI Block cfiBlock2 Using cfiCommon0
        CFI Function HalKeyConfig
        CODE
//  177 {
        FUNCALL HalKeyConfig, printf
        LOCFRAME ISTACK, 0, STACK
        LOCFRAME PSTACK, 0, STACK
        LOCFRAME XSTACK, 9, STACK
        LOCFRAME IOVERLAY, 0, STATIC
        LOCFRAME DOVERLAY, 0, STATIC
        ARGFRAME ISTACK, 0, STACK
        ARGFRAME PSTACK, 0, STACK
        ARGFRAME XSTACK, 9, STACK
        ARGFRAME IOVERLAY, 0, STATIC
        ARGFRAME DOVERLAY, 0, STATIC
        FUNCALL HalKeyConfig, osal_stop_timerEx
        LOCFRAME ISTACK, 0, STACK
        LOCFRAME PSTACK, 0, STACK
        LOCFRAME XSTACK, 9, STACK
        LOCFRAME IOVERLAY, 0, STATIC
        LOCFRAME DOVERLAY, 0, STATIC
        ARGFRAME ISTACK, 0, STACK
        ARGFRAME PSTACK, 0, STACK
        ARGFRAME XSTACK, 9, STACK
        ARGFRAME IOVERLAY, 0, STATIC
        ARGFRAME DOVERLAY, 0, STATIC
        FUNCALL HalKeyConfig, osal_start_timerEx
        LOCFRAME ISTACK, 0, STACK
        LOCFRAME PSTACK, 0, STACK
        LOCFRAME XSTACK, 9, STACK
        LOCFRAME IOVERLAY, 0, STATIC
        LOCFRAME DOVERLAY, 0, STATIC
        ARGFRAME ISTACK, 0, STACK
        ARGFRAME PSTACK, 0, STACK
        ARGFRAME XSTACK, 9, STACK
        ARGFRAME IOVERLAY, 0, STATIC
        ARGFRAME DOVERLAY, 0, STATIC
        MOV     A,#-0x9
        LCALL   ?BANKED_ENTER_XDATA
        CFI DPH0 load(1, XDATA, add(CFA_XSP16, literal(-1)))
        CFI DPL0 load(1, XDATA, add(CFA_XSP16, literal(-2)))
        CFI ?BRET_EXT load(1, XDATA, add(CFA_XSP16, literal(-3)))
        CFI ?RET_HIGH load(1, XDATA, add(CFA_XSP16, literal(-4)))
        CFI ?RET_LOW load(1, XDATA, add(CFA_XSP16, literal(-5)))
        CFI R7 load(1, XDATA, add(CFA_XSP16, literal(-6)))
        CFI V0 load(1, XDATA, add(CFA_XSP16, literal(-7)))
        CFI VB load(1, XDATA, add(CFA_XSP16, literal(-8)))
        CFI R6 load(1, XDATA, add(CFA_XSP16, literal(-9)))
        CFI CFA_SP SP+0
        CFI CFA_XSP16 add(XSP16, 9)
        ; Saved register size: 9
        ; Auto size: 0
        MOV     A,R1
//  178   /* Enable/Disable Interrupt or */
//  179   Hal_KeyIntEnable = interruptEnable;
        MOV     DPTR,#Hal_KeyIntEnable
        MOVX    @DPTR,A
//  180 
//  181   /* Register the callback fucntion */
//  182   pHalKeyProcessFunction = cback;
        MOV     DPTR,#pHalKeyProcessFunction
        MOV     A,R2
        MOVX    @DPTR,A
        INC     DPTR
        MOV     A,R3
        MOVX    @DPTR,A
//  183 
//  184   /* Determine if interrupt is enable or not */
//  185   if (Hal_KeyIntEnable)
        MOV     DPTR,#Hal_KeyIntEnable
        MOVX    A,@DPTR
        JZ      ??HalKeyConfig_0
//  186   {
//  187     printf("INT keys\n");
        ; Setup parameters for call to function printf
        MOV     R2,#`?<Constant "INT keys\\n">` & 0xff
        MOV     R3,#(`?<Constant "INT keys\\n">` >> 8) & 0xff
        LCALL   ??printf?relay
//  188     
//  189     /* Rising/Falling edge configuratinn */    
//  190     
//  191     /*
//  192     P0INP  &= ~0X10;
//  193     P0IEN |= 0x10;    // P0.4 设置为中断方式 1：中断使能
//  194     PICTL |= 0x10;    //下降沿触发   
//  195     IEN1 |= 0x20;    //允许P0口中断; 
//  196     P0IFG |= 0x00;    //初始化中断标志位
//  197    // EA = 1;          //打开总中断
//  198     */
//  199     P0INP  &= ~0X10;   //设置P0口输入电路模式为上拉/ 下拉
        ANL     0x8f,#0xef
//  200         P0IEN |= 0X10;     //P01设置为中断方式 
        ORL     0xab,#0x10
//  201         PICTL |= 0X10;     // 下降沿触发     
        ORL     0x8c,#0x10
//  202    IEN1 |= 0X20;      //  开P0口总中断 
        SETB    0xb8.5
//  203         P0IFG |= 0x00;     //清中断标志
        MOV     0x89,0x89
//  204 	EA = 1; 
        SETB    0xa8.7
//  205         
//  206     /* Do this only after the hal_key is configured - to work with sleep stuff */
//  207     if (HalKeyConfigured == TRUE)
        MOV     DPTR,#HalKeyConfigured
        MOVX    A,@DPTR
        XRL     A,#0x1
        JNZ     ??HalKeyConfig_1
//  208     {
//  209       osal_stop_timerEx( Hal_TaskID, HAL_KEY_EVENT);  /* Cancel polling if active */
        ; Setup parameters for call to function osal_stop_timerEx
        MOV     R2,#0x1
        MOV     R3,#0x0
        MOV     DPTR,#Hal_TaskID
        MOVX    A,@DPTR
        MOV     R1,A
        LCALL   ??osal_stop_timerEx?relay
        SJMP    ??HalKeyConfig_1
//  210     }
//  211   }
//  212   else    /* Interrupts NOT enabled */
//  213   {
//  214    
//  215     P0SEL &= ~0x10;     //设置P0.4为普通IO口  
??HalKeyConfig_0:
        ANL     0xf3,#0xef
//  216     P0DIR &= ~0x10;     //按键接在P0.4口上，设P0.4为输入模式 
        ANL     0xfd,#0xef
//  217     P0INP &= ~0x10;     //打开P0.4上拉电阻
        ANL     0x8f,#0xef
//  218     
//  219     P0SEL &= ~0x20;     //设置P0.5为普通IO口  
        ANL     0xf3,#0xdf
//  220     P0DIR &= ~0x20;     //按键接在P0.5口上，设P0.5为输入模式 
        ANL     0xfd,#0xdf
//  221     P0INP &= ~0x20;     //打开P0.5上拉电阻
        ANL     0x8f,#0xdf
//  222     
//  223     P0SEL &= ~0x40;     //设置P0.6为普通IO口  
        ANL     0xf3,#0xbf
//  224     P0DIR &= ~0x40;     //按键接在P0.6口上，设P0.6为输入模式 
        ANL     0xfd,#0xbf
//  225     P0INP &= ~0x40;     //P0.6 
        ANL     0x8f,#0xbf
//  226    
//  227     P0SEL &= ~0x80;     //设置P0.7为普通IO口  
        ANL     0xf3,#0x7f
//  228     P0DIR &= ~0x80;     //按键接在P0.7口上，设P0.7为输入模式 
        ANL     0xfd,#0x7f
//  229     P0INP &= ~0x80;     //P0.7 
        ANL     0x8f,#0x7f
//  230   
//  231     osal_start_timerEx (Hal_TaskID, HAL_KEY_EVENT, HAL_KEY_POLLING_VALUE);    /* Kick off polling */
        ; Setup parameters for call to function osal_start_timerEx
        MOV     R4,#0x64
        MOV     R5,#0x0
        MOV     R2,#0x1
        MOV     R3,#0x0
        MOV     DPTR,#Hal_TaskID
        MOVX    A,@DPTR
        MOV     R1,A
        LCALL   ??osal_start_timerEx?relay
//  232   }
//  233 
//  234   /* Key now is configured */
//  235   HalKeyConfigured = TRUE;
??HalKeyConfig_1:
        MOV     DPTR,#HalKeyConfigured
        MOV     A,#0x1
        MOVX    @DPTR,A
//  236 }
        MOV     R7,A
        LJMP    ?BANKED_LEAVE_XDATA
        CFI EndBlock cfiBlock2
        REQUIRE P0INP
        REQUIRE P0IEN
        REQUIRE PICTL
        REQUIRE _A_IEN1
        REQUIRE P0IFG
        REQUIRE _A_IEN0
        REQUIRE P0SEL
        REQUIRE P0DIR
//  237 
//  238 
//  239 /**************************************************************************************************
//  240  * @fn      HalKeyRead
//  241  *
//  242  * @brief   Read the current value of a key
//  243  *
//  244  * @param   None
//  245  *
//  246  * @return  keys - current keys status
//  247  **************************************************************************************************/

        RSEG BANKED_CODE:CODE:NOROOT(0)
//  248 uint8 HalKeyRead ( void )
HalKeyRead:
        CFI Block cfiBlock3 Using cfiCommon0
        CFI Function HalKeyRead
        CODE
//  249 {
        ; Saved register size: 0
        ; Auto size: 0
//  250   uint8 keys = 0;
//  251   
//  252   if (P0_4)//S1 
        MOV     C,0x80.4
        JNC     ??HalKeyRead_0
//  253   {
//  254     keys |= HAL_KEY_1_HIGH; 
        MOV     R1,#0x2
        SJMP    ??HalKeyRead_1
//  255   } else {
//  256     keys |= HAL_KEY_1_LOW;
??HalKeyRead_0:
        MOV     R1,#0x1
//  257   }
//  258   
//  259   
//  260   if (P0_5)//S2 
??HalKeyRead_1:
        MOV     C,0x80.5
        MOV     A,R1
        JNC     ??HalKeyRead_2
//  261   {
//  262     keys |= HAL_KEY_2_HIGH; 
        SETB    0xE0 /* A   */.3
        SJMP    ??HalKeyRead_3
//  263   } else {
//  264     keys |= HAL_KEY_2_LOW;
??HalKeyRead_2:
        SETB    0xE0 /* A   */.2
??HalKeyRead_3:
        MOV     R1,A
//  265   }
//  266 
//  267   
//  268   if (P0_6)
        MOV     C,0x80.6
        MOV     A,R1
        JNC     ??HalKeyRead_4
//  269   {
//  270     keys |= HAL_KEY_3_HIGH; 
        SETB    0xE0 /* A   */.5
        SJMP    ??HalKeyRead_5
//  271   } else {
//  272     keys |= HAL_KEY_3_LOW; 
??HalKeyRead_4:
        SETB    0xE0 /* A   */.4
??HalKeyRead_5:
        MOV     R1,A
//  273   }
//  274   
//  275   
//  276   if (P0_7)
        MOV     C,0x80.7
        MOV     A,R1
        JNC     ??HalKeyRead_6
//  277   {
//  278     keys |= HAL_KEY_4_HIGH; 
        SETB    0xE0 /* A   */.7
        SJMP    ??HalKeyRead_7
//  279   } else {
//  280     keys |= HAL_KEY_4_LOW; 
??HalKeyRead_6:
        SETB    0xE0 /* A   */.6
??HalKeyRead_7:
        MOV     R1,A
//  281   }
//  282   
//  283   return keys;
        LJMP    ?BRET
        CFI EndBlock cfiBlock3
        REQUIRE _A_P0
//  284 }
//  285 
//  286 uint8 diffKeys(uint8 savedKeys, uint8  keys);
//  287 

        RSEG BANKED_CODE:CODE:NOROOT(0)
//  288 uint8 diffKeys(uint8 savedKeys, uint8  keys)
diffKeys:
        CFI Block cfiBlock4 Using cfiCommon0
        CFI Function diffKeys
        CODE
//  289 {
        MOV     A,#-0xa
        LCALL   ?BANKED_ENTER_XDATA
        CFI DPH0 load(1, XDATA, add(CFA_XSP16, literal(-1)))
        CFI DPL0 load(1, XDATA, add(CFA_XSP16, literal(-2)))
        CFI ?BRET_EXT load(1, XDATA, add(CFA_XSP16, literal(-3)))
        CFI ?RET_HIGH load(1, XDATA, add(CFA_XSP16, literal(-4)))
        CFI ?RET_LOW load(1, XDATA, add(CFA_XSP16, literal(-5)))
        CFI R7 load(1, XDATA, add(CFA_XSP16, literal(-6)))
        CFI V1 load(1, XDATA, add(CFA_XSP16, literal(-7)))
        CFI V0 load(1, XDATA, add(CFA_XSP16, literal(-8)))
        CFI VB load(1, XDATA, add(CFA_XSP16, literal(-9)))
        CFI R6 load(1, XDATA, add(CFA_XSP16, literal(-10)))
        CFI CFA_SP SP+0
        CFI CFA_XSP16 add(XSP16, 10)
        ; Saved register size: 10
        ; Auto size: 0
        MOV     A,R1
        MOV     R3,A
//  290   uint8 ret = 0;
        MOV     R1,#0x0
//  291   for (int i = 0; i < 8; i++) {
        MOV     R4,#0x0
        MOV     R5,#0x0
//  292     uint8 savedKeyBit =  savedKeys & (1 << i);
//  293     uint8 keyBit =  keys & (1 << i);
??diffKeys_0:
        MOV     ?V0 + 0,#0x1
        MOV     ?V0 + 1,#0x0
        MOV     A,R4
        MOV     R0,#?V0 + 0
        LCALL   ?S_SHL
        MOV     R0,?V0 + 0
        MOV     A,R2
        ANL     A,R0
        MOV     R6,A
//  294     if (keyBit && !savedKeyBit) {
        JZ      ??diffKeys_1
        MOV     A,R3
        ANL     A,R0
        JNZ     ??diffKeys_1
//  295       ret |=  keyBit;
        MOV     A,R6
        XCH     A,R1
        ORL     A,R1
        MOV     R1,A
//  296     }
//  297   }
??diffKeys_1:
        MOV     A,R4
        ADD     A,#0x1
        INC     R4
        MOV     A,R5
        ADDC    A,#0x0
        MOV     R5,A
        CLR     C
        MOV     A,R4
        SUBB    A,#0x8
        MOV     A,R5
        SUBB    A,#0x0
        MOV     C,0xD0 /* PSW */.2
        XRL     A,PSW
        RLC     A
        JC      ??diffKeys_0
//  298   
//  299   return ret;
        MOV     R7,#0x2
        LJMP    ?BANKED_LEAVE_XDATA
        CFI EndBlock cfiBlock4
//  300 }
//  301 /**************************************************************************************************
//  302  * @fn      HalKeyPoll
//  303  *
//  304  * @brief   Called by hal_driver to poll the keys
//  305  *
//  306  * @param   None
//  307  *
//  308  * @return  None
//  309  **************************************************************************************************/

        RSEG BANKED_CODE:CODE:NOROOT(0)
//  310 void HalKeyPoll (void)
HalKeyPoll:
        CFI Block cfiBlock5 Using cfiCommon0
        CFI Function HalKeyPoll
        CODE
//  311 {
        FUNCALL HalKeyPoll, HalKeyRead
        LOCFRAME ISTACK, 0, STACK
        LOCFRAME PSTACK, 0, STACK
        LOCFRAME XSTACK, 9, STACK
        LOCFRAME IOVERLAY, 0, STATIC
        LOCFRAME DOVERLAY, 0, STATIC
        ARGFRAME ISTACK, 0, STACK
        ARGFRAME PSTACK, 0, STACK
        ARGFRAME XSTACK, 9, STACK
        ARGFRAME IOVERLAY, 0, STATIC
        ARGFRAME DOVERLAY, 0, STATIC
        FUNCALL HalKeyPoll, diffKeys
        LOCFRAME ISTACK, 0, STACK
        LOCFRAME PSTACK, 0, STACK
        LOCFRAME XSTACK, 9, STACK
        LOCFRAME IOVERLAY, 0, STATIC
        LOCFRAME DOVERLAY, 0, STATIC
        ARGFRAME ISTACK, 0, STACK
        ARGFRAME PSTACK, 0, STACK
        ARGFRAME XSTACK, 9, STACK
        ARGFRAME IOVERLAY, 0, STATIC
        ARGFRAME DOVERLAY, 0, STATIC
        MOV     A,#-0x9
        LCALL   ?BANKED_ENTER_XDATA
        CFI DPH0 load(1, XDATA, add(CFA_XSP16, literal(-1)))
        CFI DPL0 load(1, XDATA, add(CFA_XSP16, literal(-2)))
        CFI ?BRET_EXT load(1, XDATA, add(CFA_XSP16, literal(-3)))
        CFI ?RET_HIGH load(1, XDATA, add(CFA_XSP16, literal(-4)))
        CFI ?RET_LOW load(1, XDATA, add(CFA_XSP16, literal(-5)))
        CFI R7 load(1, XDATA, add(CFA_XSP16, literal(-6)))
        CFI V0 load(1, XDATA, add(CFA_XSP16, literal(-7)))
        CFI VB load(1, XDATA, add(CFA_XSP16, literal(-8)))
        CFI R6 load(1, XDATA, add(CFA_XSP16, literal(-9)))
        CFI CFA_SP SP+0
        CFI CFA_XSP16 add(XSP16, 9)
        ; Saved register size: 9
        ; Auto size: 0
//  312   uint8 keys = HalKeyRead();
        ; Setup parameters for call to function HalKeyRead
        LCALL   ??HalKeyRead?relay
        MOV     A,R1
        MOV     R6,A
//  313   
//  314  // if (!Hal_KeyIntEnable)
//  315   {
//  316     if (keys == mySavedKeys)
        MOV     DPTR,#mySavedKeys
        MOVX    A,@DPTR
        XRL     A,R6
        JZ      ??HalKeyPoll_0
//  317     {
//  318       /* Exit - since no keys have changed */
//  319       return;
//  320     }
//  321     /* Store the current keys for comparation next time */
//  322     halKeySavedKeys = diffKeys(mySavedKeys, keys);
        ; Setup parameters for call to function diffKeys
        MOV     A,R6
        MOV     R2,A
        MOVX    A,@DPTR
        MOV     R1,A
        LCALL   ??diffKeys?relay
        MOV     A,R1
        MOV     DPTR,#halKeySavedKeys
        MOVX    @DPTR,A
//  323     mySavedKeys = keys;
        MOV     A,R6
        MOV     DPTR,#mySavedKeys
        MOVX    @DPTR,A
//  324   }
//  325  
//  326   /* Invoke Callback if new keys were depressed */
//  327   if (keys && (pHalKeyProcessFunction))
        JZ      ??HalKeyPoll_0
        MOV     DPTR,#pHalKeyProcessFunction
        MOVX    A,@DPTR
        MOV     R0,A
        INC     DPTR
        MOVX    A,@DPTR
        MOV     R1,A
        MOV     A,R0
        ORL     A,R1
        JZ      ??HalKeyPoll_0
//  328   {
//  329     (pHalKeyProcessFunction) (halKeySavedKeys, HAL_KEY_STATE_NORMAL);
        ; Setup parameters for indirect call
        MOV     R2,#0x0
        MOV     DPTR,#halKeySavedKeys
        MOVX    A,@DPTR
        MOV     R1,A
        MOV     DPTR,#pHalKeyProcessFunction + 1
        MOVX    A,@DPTR
        MOV     DPH,A
        MOV     DPL,R0
        LCALL   ?CALL_IND
??HalKeyPoll_0:
        MOV     R7,#0x1
        LJMP    ?BANKED_LEAVE_XDATA
        CFI EndBlock cfiBlock5
//  330   }
//  331 }
//  332 
//  333 
//  334 
//  335 
//  336 /**************************************************************************************************
//  337  * @fn      halProcessKeyInterrupt
//  338  *
//  339  * @brief   Checks to see if it's a valid key interrupt, saves interrupt driven key states for
//  340  *          processing by HalKeyRead(), and debounces keys by scheduling HalKeyRead() 25ms later.
//  341  *
//  342  * @param
//  343  *
//  344  * @return
//  345  **************************************************************************************************/

        RSEG BANKED_CODE:CODE:NOROOT(0)
//  346 void halProcessKeyInterrupt (void)
halProcessKeyInterrupt:
        CFI Block cfiBlock6 Using cfiCommon0
        CFI Function halProcessKeyInterrupt
        CODE
//  347 {
        FUNCALL halProcessKeyInterrupt, osal_start_timerEx
        LOCFRAME ISTACK, 2, STACK
        LOCFRAME PSTACK, 0, STACK
        LOCFRAME XSTACK, 0, STACK
        LOCFRAME IOVERLAY, 0, STATIC
        LOCFRAME DOVERLAY, 0, STATIC
        ARGFRAME ISTACK, 2, STACK
        ARGFRAME PSTACK, 0, STACK
        ARGFRAME XSTACK, 0, STACK
        ARGFRAME IOVERLAY, 0, STATIC
        ARGFRAME DOVERLAY, 0, STATIC
        PUSH    DPL
        CFI DPL0 Frame(CFA_SP, 4)
        CFI CFA_SP SP+-4
        PUSH    DPH
        CFI DPH0 Frame(CFA_SP, 5)
        CFI CFA_SP SP+-5
        ; Saved register size: 2
        ; Auto size: 0
//  348   bool valid=TRUE;
//  349   
//  350 
//  351   if (valid)
//  352   {
//  353     osal_start_timerEx (Hal_TaskID, HAL_KEY_EVENT, HAL_KEY_DEBOUNCE_VALUE);
        ; Setup parameters for call to function osal_start_timerEx
        MOV     R4,#0x19
        MOV     R5,#0x0
        MOV     R2,#0x1
        MOV     R3,#0x0
        MOV     DPTR,#Hal_TaskID
        MOVX    A,@DPTR
        MOV     R1,A
        LCALL   ??osal_start_timerEx?relay
//  354   }
//  355 }
        LJMP    ?Subroutine0 & 0xFFFF
        CFI EndBlock cfiBlock6
//  356 
//  357 /**************************************************************************************************
//  358  * @fn      HalKeyEnterSleep
//  359  *
//  360  * @brief  - Get called to enter sleep mode
//  361  *
//  362  * @param
//  363  *
//  364  * @return
//  365  **************************************************************************************************/

        RSEG BANKED_CODE:CODE:NOROOT(0)
//  366 void HalKeyEnterSleep ( void )
HalKeyEnterSleep:
        CFI Block cfiBlock7 Using cfiCommon0
        CFI Function HalKeyEnterSleep
        CODE
//  367 {
        ; Saved register size: 0
        ; Auto size: 0
//  368 }
        LJMP    ?BRET
        CFI EndBlock cfiBlock7
//  369 
//  370 /**************************************************************************************************
//  371  * @fn      HalKeyExitSleep
//  372  *
//  373  * @brief   - Get called when sleep is over
//  374  *
//  375  * @param
//  376  *
//  377  * @return  - return saved keys
//  378  **************************************************************************************************/

        RSEG BANKED_CODE:CODE:NOROOT(0)
//  379 uint8 HalKeyExitSleep ( void )
HalKeyExitSleep:
        CFI Block cfiBlock8 Using cfiCommon0
        CFI Function HalKeyExitSleep
        CODE
//  380 {
        FUNCALL HalKeyExitSleep, HalKeyRead
        LOCFRAME ISTACK, 2, STACK
        LOCFRAME PSTACK, 0, STACK
        LOCFRAME XSTACK, 0, STACK
        LOCFRAME IOVERLAY, 0, STATIC
        LOCFRAME DOVERLAY, 0, STATIC
        ARGFRAME ISTACK, 2, STACK
        ARGFRAME PSTACK, 0, STACK
        ARGFRAME XSTACK, 0, STACK
        ARGFRAME IOVERLAY, 0, STATIC
        ARGFRAME DOVERLAY, 0, STATIC
        PUSH    DPL
        CFI DPL0 Frame(CFA_SP, 4)
        CFI CFA_SP SP+-4
        PUSH    DPH
        CFI DPH0 Frame(CFA_SP, 5)
        CFI CFA_SP SP+-5
        ; Saved register size: 2
        ; Auto size: 0
//  381   /* Wake up and read keys */
//  382   return ( HalKeyRead () );
        ; Setup parameters for call to function HalKeyRead
        LCALL   ??HalKeyRead?relay
        LJMP    ?Subroutine0 & 0xFFFF
        CFI EndBlock cfiBlock8
//  383 }
//  384 
//  385 /***************************************************************************************************
//  386  *                                    INTERRUPT SERVICE ROUTINE
//  387  ***************************************************************************************************/
//  388 void SysPowerMode(uint8 mode);
//  389 /**************************************************************************************************
//  390  * @fn      halKeyPort0Isr
//  391  *
//  392  * @brief   Port0 ISR
//  393  *
//  394  * @param
//  395  *
//  396  * @return
//  397  **************************************************************************************************/

        RSEG NEAR_CODE:CODE:NOROOT(0)
//  398 HAL_ISR_FUNCTION( halKeyPort0Isr, P0INT_VECTOR )
halKeyPort0Isr:
        CFI Block cfiBlock9 Using cfiCommon1
        CFI Function halKeyPort0Isr
        CODE
//  399 {
        FUNCALL halKeyPort0Isr, printf
        LOCFRAME ISTACK, 0, STACK
        LOCFRAME PSTACK, 0, STACK
        LOCFRAME XSTACK, 14, STACK
        LOCFRAME IOVERLAY, 0, STATIC
        LOCFRAME DOVERLAY, 0, STATIC
        ARGFRAME ISTACK, 0, STACK
        ARGFRAME PSTACK, 0, STACK
        ARGFRAME XSTACK, 14, STACK
        ARGFRAME IOVERLAY, 0, STATIC
        ARGFRAME DOVERLAY, 0, STATIC
        FUNCALL halKeyPort0Isr, halProcessKeyInterrupt
        LOCFRAME ISTACK, 0, STACK
        LOCFRAME PSTACK, 0, STACK
        LOCFRAME XSTACK, 14, STACK
        LOCFRAME IOVERLAY, 0, STATIC
        LOCFRAME DOVERLAY, 0, STATIC
        ARGFRAME ISTACK, 0, STACK
        ARGFRAME PSTACK, 0, STACK
        ARGFRAME XSTACK, 14, STACK
        ARGFRAME IOVERLAY, 0, STATIC
        ARGFRAME DOVERLAY, 0, STATIC
        FUNCALL halKeyPort0Isr, SysPowerMode
        LOCFRAME ISTACK, 0, STACK
        LOCFRAME PSTACK, 0, STACK
        LOCFRAME XSTACK, 14, STACK
        LOCFRAME IOVERLAY, 0, STATIC
        LOCFRAME DOVERLAY, 0, STATIC
        ARGFRAME ISTACK, 0, STACK
        ARGFRAME PSTACK, 0, STACK
        ARGFRAME XSTACK, 14, STACK
        ARGFRAME IOVERLAY, 0, STATIC
        ARGFRAME DOVERLAY, 0, STATIC
        PUSH    A
        CFI A Frame(CFA_SP, 3)
        CFI CFA_SP SP+-3
        MOV     A,#-0xe
        LCALL   ?INTERRUPT_ENTER_XSP
        CFI B load(1, XDATA, add(CFA_XSP16, literal(-1)))
        CFI VB load(1, XDATA, add(CFA_XSP16, literal(-2)))
        CFI PSW load(1, XDATA, add(CFA_XSP16, literal(-3)))
        CFI DPL0 load(1, XDATA, add(CFA_XSP16, literal(-4)))
        CFI DPH0 load(1, XDATA, add(CFA_XSP16, literal(-5)))
        CFI R7 load(1, XDATA, add(CFA_XSP16, literal(-6)))
        CFI R6 load(1, XDATA, add(CFA_XSP16, literal(-7)))
        CFI R5 load(1, XDATA, add(CFA_XSP16, literal(-8)))
        CFI R4 load(1, XDATA, add(CFA_XSP16, literal(-9)))
        CFI V0 load(1, XDATA, add(CFA_XSP16, literal(-10)))
        CFI R3 load(1, XDATA, add(CFA_XSP16, literal(-11)))
        CFI R2 load(1, XDATA, add(CFA_XSP16, literal(-12)))
        CFI R1 load(1, XDATA, add(CFA_XSP16, literal(-13)))
        CFI R0 load(1, XDATA, add(CFA_XSP16, literal(-14)))
        CFI CFA_XSP16 add(XSP16, 14)
        ; Saved register size: 14
        ; Auto size: 0
//  400   
//  401   printf("hal isr key\n");
        ; Setup parameters for call to function printf
        MOV     R2,#`?<Constant "hal isr key\\n">` & 0xff
        MOV     R3,#(`?<Constant "hal isr key\\n">` >> 8) & 0xff
        LCALL   ??printf?relay
//  402   
//  403   halProcessKeyInterrupt();
        ; Setup parameters for call to function halProcessKeyInterrupt
        LCALL   ??halProcessKeyInterrupt?relay
//  404   
//  405   SysPowerMode(4);
        ; Setup parameters for call to function SysPowerMode
        MOV     R1,#0x4
        LCALL   ??SysPowerMode?relay
//  406   
//  407   P0IFG = 0;       //清中断标志 
        MOV     0x89,#0x0
//  408   P0IF = 0;        //清中断标志  
        CLR     0xc0.5
//  409     
//  410 }
        MOV     R7,#0x1
        LJMP    ?INTERRUPT_LEAVE_XSP
        CFI EndBlock cfiBlock9
        REQUIRE P0IFG
        REQUIRE _A_IRCON
//  411 
//  412 
//  413 /**************************************************************************************************
//  414  * @fn      halKeyPort2Isr
//  415  *
//  416  * @brief   Port2 ISR
//  417  *
//  418  * @param
//  419  *
//  420  * @return
//  421  **************************************************************************************************/

        RSEG NEAR_CODE:CODE:NOROOT(0)
//  422 HAL_ISR_FUNCTION( halKeyPort2Isr, P2INT_VECTOR )
halKeyPort2Isr:
        CFI Block cfiBlock10 Using cfiCommon1
        CFI Function halKeyPort2Isr
        CODE
//  423 {
        ; Saved register size: 1
        ; Auto size: 0
//  424   HAL_KEY_CPU_PORT_2_IF = 0;
        CLR     0xe8.0
//  425 }
        RETI
        CFI EndBlock cfiBlock10
        REQUIRE _A_IRCON2

        COMMON INTVEC:CODE:ROOT(0)
        ORG 51
`??halKeyPort2Isr??INTVEC 51`:
        LJMP       (halKeyPort2Isr)

        COMMON INTVEC:CODE:ROOT(0)
        ORG 107
`??halKeyPort0Isr??INTVEC 107`:
        LJMP       (halKeyPort0Isr)

        RSEG BANK_RELAYS:CODE:REORDER:NOROOT(0)
??HalKeyInit?relay:
        LCALL   ?BDISPATCH
        DATA
        DC24    HalKeyInit

        RSEG BANK_RELAYS:CODE:REORDER:NOROOT(0)
??HalKeyConfig?relay:
        LCALL   ?BDISPATCH
        DATA
        DC24    HalKeyConfig

        RSEG BANK_RELAYS:CODE:REORDER:NOROOT(0)
??HalKeyRead?relay:
        LCALL   ?BDISPATCH
        DATA
        DC24    HalKeyRead

        RSEG BANK_RELAYS:CODE:REORDER:NOROOT(0)
??diffKeys?relay:
        LCALL   ?BDISPATCH
        DATA
        DC24    diffKeys

        RSEG BANK_RELAYS:CODE:REORDER:NOROOT(0)
??HalKeyPoll?relay:
        LCALL   ?BDISPATCH
        DATA
        DC24    HalKeyPoll

        RSEG BANK_RELAYS:CODE:REORDER:NOROOT(0)
??halProcessKeyInterrupt?relay:
        LCALL   ?BDISPATCH
        DATA
        DC24    halProcessKeyInterrupt

        RSEG BANK_RELAYS:CODE:REORDER:NOROOT(0)
??HalKeyEnterSleep?relay:
        LCALL   ?BDISPATCH
        DATA
        DC24    HalKeyEnterSleep

        RSEG BANK_RELAYS:CODE:REORDER:NOROOT(0)
??HalKeyExitSleep?relay:
        LCALL   ?BDISPATCH
        DATA
        DC24    HalKeyExitSleep

        RSEG XDATA_ROM_C:CONST:REORDER:NOROOT(0)
        DATA8
`?<Constant "INT keys\\n">`:
        DB "INT keys\012"

        RSEG XDATA_ROM_C:CONST:REORDER:NOROOT(0)
        DATA8
`?<Constant "hal isr key\\n">`:
        DB "hal isr key\012"

        END
//  426 
//  427 #else
//  428 
//  429 
//  430 void HalKeyInit(void){}
//  431 void HalKeyConfig(bool interruptEnable, halKeyCBack_t cback){}
//  432 uint8 HalKeyRead(void){ return 0;}
//  433 void HalKeyPoll(void){}
//  434 
//  435 #endif /* HAL_KEY */
//  436 
//  437 
//  438 
//  439 
//  440 
//  441 /**************************************************************************************************
//  442 **************************************************************************************************/
//  443 
//  444 
//  445 
// 
// 384 bytes in segment BANKED_CODE
//  48 bytes in segment BANK_RELAYS
//   6 bytes in segment INTVEC
//  35 bytes in segment NEAR_CODE
//  11 bytes in segment SFR_AN
//  23 bytes in segment XDATA_ROM_C
//   6 bytes in segment XDATA_Z
// 
// 467 bytes of CODE  memory (+  6 bytes shared)
//  23 bytes of CONST memory
//   0 bytes of DATA  memory (+ 11 bytes shared)
//   6 bytes of XDATA memory
//
//Errors: none
//Warnings: none
