///////////////////////////////////////////////////////////////////////////////
//                                                                            /
// IAR C/C++ Compiler V8.10.3.10338/W32 for 8051        07/Oct/2017  00:37:06 /
// Copyright 2004-2011 IAR Systems AB.                                        /
//                                                                            /
//    Core               =  plain                                             /
//    Code model         =  banked                                            /
//    Data model         =  large                                             /
//    Calling convention =  xdata reentrant                                   /
//    Constant location  =  data_rom                                          /
//    Dptr setup         =  1,16                                              /
//    Source file        =  C:\workspace\ZStack-UART\Components\hal\target\CC /
//                          2530EB\hal_key.c                                  /
//    Command line       =  -f C:\workspace\ZStack-UART\Projects\zstack\Sampl /
//                          es\GenericApp\CC2530DB\..\..\..\Tools\CC2530DB\f8 /
//                          wRouter.cfg (-DCPU32MHZ -DROOT=__near_func        /
//                          -DMAC_CFG_APP_PENDING_QUEUE=TRUE -DRTR_NWK        /
//                          -DNV_RESTORE -DBLINK_LEDS) -f                     /
//                          C:\workspace\ZStack-UART\Projects\zstack\Samples\ /
//                          GenericApp\CC2530DB\..\..\..\Tools\CC2530DB\f8wCo /
//                          nfig.cfg (-DSECURE=0 -DZG_SECURE_DYNAMIC=0        /
//                          -DREFLECTOR -DDEFAULT_CHANLIST=0x00004000         /
//                          -DZDAPP_CONFIG_PAN_ID=0xFFFF                      /
//                          -DNWK_START_DELAY=100 -DEXTENDED_JOINING_RANDOM_M /
//                          ASK=0x007F -DBEACON_REQUEST_DELAY=100             /
//                          -DBEACON_REQ_DELAY_MASK=0x00FF                    /
//                          -DROUTE_EXPIRY_TIME=30 -DAPSC_ACK_WAIT_DURATION_P /
//                          OLLED=3000 -DNWK_INDIRECT_MSG_TIMEOUT=7           /
//                          -DMAX_RREQ_ENTRIES=8 -DAPSC_MAX_FRAME_RETRIES=3   /
//                          -DNWK_MAX_DATA_RETRIES=2                          /
//                          -DMAX_POLL_FAILURE_RETRIES=2 -DMAX_BCAST=9        /
//                          -DAPS_MAX_GROUPS=16 -DMAX_RTG_ENTRIES=40          /
//                          -DNWK_MAX_BINDING_ENTRIES=4                       /
//                          -DMAX_BINDING_CLUSTER_IDS=4                       /
//                          "-DDEFAULT_KEY={0x01, 0x03, 0x05, 0x07, 0x09,     /
//                          0x0B, 0x0D, 0x0F, 0x00, 0x02, 0x04, 0x06, 0x08,   /
//                          0x0A, 0x0C, 0x0D}" -DMAC_MAX_FRAME_SIZE=116       /
//                          "-DCONST=const __code" -DGENERIC=__generic        /
//                          -DRFD_RCVC_ALWAYS_ON=FALSE -DPOLL_RATE=1000       /
//                          -DQUEUED_POLL_RATE=100 -DRESPONSE_POLL_RATE=100)  /
//                          -DREJOIN_POLL_RATE=440 C:\workspace\ZStack-UART\C /
//                          omponents\hal\target\CC2530EB\hal_key.c -D        /
//                          ZIGBEEPRO -D ZTOOL_P1 -D MT_TASK -D MT_SYS_FUNC   /
//                          -D MT_ZDO_FUNC -D LCD_SUPPORTED=DEBUG -lC         /
//                          C:\workspace\ZStack-UART\Projects\zstack\Samples\ /
//                          GenericApp\CC2530DB\RouterEB-Pro\List\ -lA        /
//                          C:\workspace\ZStack-UART\Projects\zstack\Samples\ /
//                          GenericApp\CC2530DB\RouterEB-Pro\List\            /
//                          --diag_suppress Pe001,Pa010 -o                    /
//                          C:\workspace\ZStack-UART\Projects\zstack\Samples\ /
//                          GenericApp\CC2530DB\RouterEB-Pro\Obj\ -e --debug  /
//                          --core=plain --dptr=16,1 --data_model=large       /
//                          --code_model=banked --calling_convention=xdata_re /
//                          entrant --place_constants=data_rom                /
//                          --nr_virtual_regs 16 -I                           /
//                          C:\workspace\ZStack-UART\Projects\zstack\Samples\ /
//                          GenericApp\CC2530DB\ -I                           /
//                          C:\workspace\ZStack-UART\Projects\zstack\Samples\ /
//                          GenericApp\CC2530DB\..\SOURCE\ -I                 /
//                          C:\workspace\ZStack-UART\Projects\zstack\Samples\ /
//                          GenericApp\CC2530DB\..\..\..\ZMAIN\TI2530DB\ -I   /
//                          C:\workspace\ZStack-UART\Projects\zstack\Samples\ /
//                          GenericApp\CC2530DB\..\..\..\..\..\COMPONENTS\MT\ /
//                           -I C:\workspace\ZStack-UART\Projects\zstack\Samp /
//                          les\GenericApp\CC2530DB\..\..\..\..\..\COMPONENTS /
//                          \HAL\INCLUDE\ -I C:\workspace\ZStack-UART\Project /
//                          s\zstack\Samples\GenericApp\CC2530DB\..\..\..\..\ /
//                          ..\COMPONENTS\HAL\TARGET\CC2530EB\ -I             /
//                          C:\workspace\ZStack-UART\Projects\zstack\Samples\ /
//                          GenericApp\CC2530DB\..\..\..\..\..\COMPONENTS\OSA /
//                          L\MCU\CCSOC\ -I C:\workspace\ZStack-UART\Projects /
//                          \zstack\Samples\GenericApp\CC2530DB\..\..\..\..\. /
//                          .\COMPONENTS\OSAL\INCLUDE\ -I                     /
//                          C:\workspace\ZStack-UART\Projects\zstack\Samples\ /
//                          GenericApp\CC2530DB\..\..\..\..\..\COMPONENTS\STA /
//                          CK\AF\ -I C:\workspace\ZStack-UART\Projects\zstac /
//                          k\Samples\GenericApp\CC2530DB\..\..\..\..\..\COMP /
//                          ONENTS\STACK\NWK\ -I C:\workspace\ZStack-UART\Pro /
//                          jects\zstack\Samples\GenericApp\CC2530DB\..\..\.. /
//                          \..\..\COMPONENTS\STACK\SEC\ -I                   /
//                          C:\workspace\ZStack-UART\Projects\zstack\Samples\ /
//                          GenericApp\CC2530DB\..\..\..\..\..\COMPONENTS\STA /
//                          CK\SAPI\ -I C:\workspace\ZStack-UART\Projects\zst /
//                          ack\Samples\GenericApp\CC2530DB\..\..\..\..\..\CO /
//                          MPONENTS\STACK\SYS\ -I C:\workspace\ZStack-UART\P /
//                          rojects\zstack\Samples\GenericApp\CC2530DB\..\..\ /
//                          ..\..\..\COMPONENTS\STACK\ZDO\ -I                 /
//                          C:\workspace\ZStack-UART\Projects\zstack\Samples\ /
//                          GenericApp\CC2530DB\..\..\..\..\..\COMPONENTS\ZMA /
//                          C\F8W\ -I C:\workspace\ZStack-UART\Projects\zstac /
//                          k\Samples\GenericApp\CC2530DB\..\..\..\..\..\COMP /
//                          ONENTS\ZMAC\ -I C:\workspace\ZStack-UART\Projects /
//                          \zstack\Samples\GenericApp\CC2530DB\..\..\..\..\. /
//                          .\COMPONENTS\SERVICES\SADDR\ -I                   /
//                          C:\workspace\ZStack-UART\Projects\zstack\Samples\ /
//                          GenericApp\CC2530DB\..\..\..\..\..\COMPONENTS\SER /
//                          VICES\SDATA\ -I C:\workspace\ZStack-UART\Projects /
//                          \zstack\Samples\GenericApp\CC2530DB\..\..\..\..\. /
//                          .\COMPONENTS\MAC\INCLUDE\ -I                      /
//                          C:\workspace\ZStack-UART\Projects\zstack\Samples\ /
//                          GenericApp\CC2530DB\..\..\..\..\..\COMPONENTS\MAC /
//                          \HIGH_LEVEL\ -I C:\workspace\ZStack-UART\Projects /
//                          \zstack\Samples\GenericApp\CC2530DB\..\..\..\..\. /
//                          .\COMPONENTS\MAC\LOW_LEVEL\srf04\ -I              /
//                          C:\workspace\ZStack-UART\Projects\zstack\Samples\ /
//                          GenericApp\CC2530DB\..\..\..\..\..\COMPONENTS\MAC /
//                          \LOW_LEVEL\srf04\SINGLE_CHIP\ -Ohz                /
//                          --require_prototypes                              /
//    List file          =  C:\workspace\ZStack-UART\Projects\zstack\Samples\ /
//                          GenericApp\CC2530DB\RouterEB-Pro\List\hal_key.s51 /
//                                                                            /
//                                                                            /
///////////////////////////////////////////////////////////////////////////////

        NAME hal_key

        RTMODEL "__SystemLibrary", "CLib"
        RTMODEL "__calling_convention", "xdata_reentrant"
        RTMODEL "__code_model", "banked"
        RTMODEL "__core", "plain"
        RTMODEL "__data_model", "large"
        RTMODEL "__dptr_size", "16"
        RTMODEL "__extended_stack", "disabled"
        RTMODEL "__location_for_constants", "data"
        RTMODEL "__number_of_dptrs", "1"
        RTMODEL "__rt_version", "1"

        RSEG DOVERLAY:DATA:NOROOT(0)
        RSEG IOVERLAY:IDATA:NOROOT(0)
        RSEG ISTACK:IDATA:NOROOT(0)
        RSEG PSTACK:XDATA:NOROOT(0)
        RSEG XSTACK:XDATA:NOROOT(0)

        EXTERN ?BANKED_ENTER_XDATA
        EXTERN ?BANKED_LEAVE_XDATA
        EXTERN ?BDISPATCH
        EXTERN ?BRET
        EXTERN ?CALL_IND
        EXTERN __INIT_XDATA_Z

        PUBLIC ??HalKeyConfig?relay
        FUNCTION ??HalKeyConfig?relay,0203H
        PUBLIC ??HalKeyEnterSleep?relay
        FUNCTION ??HalKeyEnterSleep?relay,0203H
        PUBLIC ??HalKeyExitSleep?relay
        FUNCTION ??HalKeyExitSleep?relay,0203H
        PUBLIC ??HalKeyInit?relay
        FUNCTION ??HalKeyInit?relay,0203H
        PUBLIC ??HalKeyPoll?relay
        FUNCTION ??HalKeyPoll?relay,0203H
        PUBLIC ??HalKeyRead?relay
        FUNCTION ??HalKeyRead?relay,0203H
        PUBWEAK `??halKeyPort0Isr??INTVEC 107`
        PUBWEAK `??halKeyPort2Isr??INTVEC 51`
        PUBLIC ??halProcessKeyInterrupt?relay
        FUNCTION ??halProcessKeyInterrupt?relay,0203H
        PUBLIC HalKeyConfig
        FUNCTION HalKeyConfig,021203H
        ARGFRAME XSTACK, 0, STACK
        LOCFRAME XSTACK, 9, STACK
        PUBLIC HalKeyEnterSleep
        FUNCTION HalKeyEnterSleep,0203H
        ARGFRAME XSTACK, 0, STACK
        PUBLIC HalKeyExitSleep
        FUNCTION HalKeyExitSleep,021203H
        ARGFRAME XSTACK, 0, STACK
        LOCFRAME ISTACK, 2, STACK
        PUBLIC HalKeyInit
        FUNCTION HalKeyInit,0203H
        ARGFRAME XSTACK, 0, STACK
        LOCFRAME ISTACK, 2, STACK
        PUBLIC HalKeyPoll
        FUNCTION HalKeyPoll,0203H
        ARGFRAME XSTACK, 0, STACK
        LOCFRAME ISTACK, 2, STACK
        PUBLIC HalKeyRead
        FUNCTION HalKeyRead,0203H
        ARGFRAME XSTACK, 0, STACK
        ARGFRAME IOVERLAY, 0, STATIC
        ARGFRAME DOVERLAY, 0, STATIC
        PUBLIC Hal_KeyIntEnable
        PUBWEAK P0DIR
        PUBWEAK P0INP
        PUBWEAK P0SEL
        PUBWEAK _A_IRCON
        PUBWEAK _A_IRCON2
        PUBWEAK _A_P0
        PUBLIC halKeyPort0Isr
        FUNCTION halKeyPort0Isr,0233H
        ARGFRAME XSTACK, 0, STACK
        LOCFRAME ISTACK, 1, STACK
        PUBLIC halKeyPort2Isr
        FUNCTION halKeyPort2Isr,0233H
        ARGFRAME XSTACK, 0, STACK
        LOCFRAME ISTACK, 1, STACK
        PUBLIC halProcessKeyInterrupt
        FUNCTION halProcessKeyInterrupt,0203H
        ARGFRAME XSTACK, 0, STACK
        
        CFI Names cfiNames0
        CFI StackFrame CFA_SP SP IDATA
        CFI StackFrame CFA_PSP16 PSP16 XDATA
        CFI StackFrame CFA_XSP16 XSP16 XDATA
        CFI StaticOverlayFrame CFA_IOVERLAY IOVERLAY
        CFI StaticOverlayFrame CFA_DOVERLAY DOVERLAY
        CFI Resource `PSW.CY`:1, `B.BR0`:1, `B.BR1`:1, `B.BR2`:1, `B.BR3`:1
        CFI Resource `B.BR4`:1, `B.BR5`:1, `B.BR6`:1, `B.BR7`:1, `VB.BR8`:1
        CFI Resource `VB.BR9`:1, `VB.BR10`:1, `VB.BR11`:1, `VB.BR12`:1
        CFI Resource `VB.BR13`:1, `VB.BR14`:1, `VB.BR15`:1, VB:8, B:8, A:8
        CFI Resource PSW:8, DPL0:8, DPH0:8, R0:8, R1:8, R2:8, R3:8, R4:8, R5:8
        CFI Resource R6:8, R7:8, V0:8, V1:8, V2:8, V3:8, V4:8, V5:8, V6:8, V7:8
        CFI Resource V8:8, V9:8, V10:8, V11:8, V12:8, V13:8, V14:8, V15:8, SP:8
        CFI Resource PSPH:8, PSPL:8, PSP16:16, XSPH:8, XSPL:8, XSP16:16
        CFI VirtualResource ?RET:24
        CFI Resource ?BRET_EXT:8
        CFI VirtualResource ?RET_HIGH:8, ?RET_LOW:8
        CFI ResourceParts PSP16 PSPH, PSPL
        CFI ResourceParts XSP16 XSPH, XSPL
        CFI ResourceParts ?RET ?BRET_EXT, ?RET_HIGH, ?RET_LOW
        CFI EndNames cfiNames0
        
        CFI Common cfiCommon0 Using cfiNames0
        CFI CodeAlign 1
        CFI DataAlign -1
        CFI ReturnAddress ?RET CODE
        CFI CFA_DOVERLAY Used
        CFI CFA_IOVERLAY Used
        CFI CFA_SP SP+-3
        CFI CFA_PSP16 PSP16+0
        CFI CFA_XSP16 XSP16+0
        CFI `PSW.CY` SameValue
        CFI `B.BR0` SameValue
        CFI `B.BR1` SameValue
        CFI `B.BR2` SameValue
        CFI `B.BR3` SameValue
        CFI `B.BR4` SameValue
        CFI `B.BR5` SameValue
        CFI `B.BR6` SameValue
        CFI `B.BR7` SameValue
        CFI `VB.BR8` SameValue
        CFI `VB.BR9` SameValue
        CFI `VB.BR10` SameValue
        CFI `VB.BR11` SameValue
        CFI `VB.BR12` SameValue
        CFI `VB.BR13` SameValue
        CFI `VB.BR14` SameValue
        CFI `VB.BR15` SameValue
        CFI VB SameValue
        CFI B Undefined
        CFI A Undefined
        CFI PSW SameValue
        CFI DPL0 SameValue
        CFI DPH0 SameValue
        CFI R0 Undefined
        CFI R1 Undefined
        CFI R2 Undefined
        CFI R3 Undefined
        CFI R4 Undefined
        CFI R5 Undefined
        CFI R6 SameValue
        CFI R7 SameValue
        CFI V0 SameValue
        CFI V1 SameValue
        CFI V2 SameValue
        CFI V3 SameValue
        CFI V4 SameValue
        CFI V5 SameValue
        CFI V6 SameValue
        CFI V7 SameValue
        CFI V8 SameValue
        CFI V9 SameValue
        CFI V10 SameValue
        CFI V11 SameValue
        CFI V12 SameValue
        CFI V13 SameValue
        CFI V14 SameValue
        CFI V15 SameValue
        CFI PSPH Undefined
        CFI PSPL Undefined
        CFI XSPH Undefined
        CFI XSPL Undefined
        CFI ?RET Concat
        CFI ?BRET_EXT Frame(CFA_SP, 3)
        CFI ?RET_HIGH Frame(CFA_SP, 2)
        CFI ?RET_LOW Frame(CFA_SP, 1)
        CFI EndCommon cfiCommon0
        
        
        CFI Common cfiCommon1 Using cfiNames0
        CFI CodeAlign 1
        CFI DataAlign -1
        CFI ReturnAddress ?RET CODE
        CFI CFA_DOVERLAY Used
        CFI CFA_IOVERLAY Used
        CFI CFA_SP SP+-2
        CFI CFA_PSP16 PSP16+0
        CFI CFA_XSP16 XSP16+0
        CFI `PSW.CY` SameValue
        CFI `B.BR0` SameValue
        CFI `B.BR1` SameValue
        CFI `B.BR2` SameValue
        CFI `B.BR3` SameValue
        CFI `B.BR4` SameValue
        CFI `B.BR5` SameValue
        CFI `B.BR6` SameValue
        CFI `B.BR7` SameValue
        CFI `VB.BR8` SameValue
        CFI `VB.BR9` SameValue
        CFI `VB.BR10` SameValue
        CFI `VB.BR11` SameValue
        CFI `VB.BR12` SameValue
        CFI `VB.BR13` SameValue
        CFI `VB.BR14` SameValue
        CFI `VB.BR15` SameValue
        CFI VB SameValue
        CFI B SameValue
        CFI A SameValue
        CFI PSW SameValue
        CFI DPL0 SameValue
        CFI DPH0 SameValue
        CFI R0 SameValue
        CFI R1 SameValue
        CFI R2 SameValue
        CFI R3 SameValue
        CFI R4 SameValue
        CFI R5 SameValue
        CFI R6 SameValue
        CFI R7 SameValue
        CFI V0 SameValue
        CFI V1 SameValue
        CFI V2 SameValue
        CFI V3 SameValue
        CFI V4 SameValue
        CFI V5 SameValue
        CFI V6 SameValue
        CFI V7 SameValue
        CFI V8 SameValue
        CFI V9 SameValue
        CFI V10 SameValue
        CFI V11 SameValue
        CFI V12 SameValue
        CFI V13 SameValue
        CFI V14 SameValue
        CFI V15 SameValue
        CFI PSPH Undefined
        CFI PSPL Undefined
        CFI XSPH Undefined
        CFI XSPL Undefined
        CFI ?RET Concat
        CFI ?BRET_EXT SameValue
        CFI ?RET_HIGH Frame(CFA_SP, 2)
        CFI ?RET_LOW Frame(CFA_SP, 1)
        CFI EndCommon cfiCommon1
        
osal_stop_timerEx   SYMBOL "osal_stop_timerEx"
osal_start_timerEx  SYMBOL "osal_start_timerEx"
??osal_start_timerEx?relay SYMBOL "?relay", osal_start_timerEx
??osal_stop_timerEx?relay SYMBOL "?relay", osal_stop_timerEx
HalKeyConfig        SYMBOL "HalKeyConfig"
??HalKeyConfig?relay SYMBOL "?relay", HalKeyConfig
HalKeyEnterSleep    SYMBOL "HalKeyEnterSleep"
??HalKeyEnterSleep?relay SYMBOL "?relay", HalKeyEnterSleep
HalKeyExitSleep     SYMBOL "HalKeyExitSleep"
??HalKeyExitSleep?relay SYMBOL "?relay", HalKeyExitSleep
HalKeyInit          SYMBOL "HalKeyInit"
??HalKeyInit?relay  SYMBOL "?relay", HalKeyInit
HalKeyPoll          SYMBOL "HalKeyPoll"
??HalKeyPoll?relay  SYMBOL "?relay", HalKeyPoll
HalKeyRead          SYMBOL "HalKeyRead"
??HalKeyRead?relay  SYMBOL "?relay", HalKeyRead
halKeyPort0Isr      SYMBOL "halKeyPort0Isr"
`??halKeyPort0Isr??INTVEC 107` SYMBOL "??INTVEC 107", halKeyPort0Isr
halKeyPort2Isr      SYMBOL "halKeyPort2Isr"
`??halKeyPort2Isr??INTVEC 51` SYMBOL "??INTVEC 51", halKeyPort2Isr
halProcessKeyInterrupt SYMBOL "halProcessKeyInterrupt"
??halProcessKeyInterrupt?relay SYMBOL "?relay", halProcessKeyInterrupt

        EXTERN osal_stop_timerEx
        FUNCTION osal_stop_timerEx,0202H
        ARGFRAME ISTACK, 0, STACK
        ARGFRAME PSTACK, 0, STACK
        ARGFRAME XSTACK, 9, STACK
        ARGFRAME IOVERLAY, 0, STATIC
        ARGFRAME DOVERLAY, 0, STATIC
        EXTERN osal_start_timerEx
        FUNCTION osal_start_timerEx,0202H
        ARGFRAME ISTACK, 0, STACK
        ARGFRAME PSTACK, 0, STACK
        ARGFRAME XSTACK, 9, STACK
        ARGFRAME IOVERLAY, 0, STATIC
        ARGFRAME DOVERLAY, 0, STATIC
        EXTERN ??osal_start_timerEx?relay
        FUNCTION ??osal_start_timerEx?relay,00H
        EXTERN ??osal_stop_timerEx?relay
        FUNCTION ??osal_stop_timerEx?relay,00H
        EXTERN Hal_TaskID

// C:\workspace\ZStack-UART\Components\hal\target\CC2530EB\hal_key.c
//    1 /**************************************************************************************************
//    2   Filename:       hal_key.c
//    3   Revised:        $Date: 2009-12-16 17:44:49 -0800 (Wed, 16 Dec 2009) $
//    4   Revision:       $Revision: 21351 $
//    5 
//    6   Description:    This file contains the interface to the HAL KEY Service.
//    7 
//    8 
//    9   Copyright 2006-2009 Texas Instruments Incorporated. All rights reserved.
//   10 
//   11   IMPORTANT: Your use of this Software is limited to those specific rights
//   12   granted under the terms of a software license agreement between the user
//   13   who downloaded the software, his/her employer (which must be your employer)
//   14   and Texas Instruments Incorporated (the "License").  You may not use this
//   15   Software unless you agree to abide by the terms of the License. The License
//   16   limits your use, and you acknowledge, that the Software may not be modified,
//   17   copied or distributed unless embedded on a Texas Instruments microcontroller
//   18   or used solely and exclusively in conjunction with a Texas Instruments radio
//   19   frequency transceiver, which is integrated into your product.  Other than for
//   20   the foregoing purpose, you may not use, reproduce, copy, prepare derivative
//   21   works of, modify, distribute, perform, display or sell this Software and/or
//   22   its documentation for any purpose.
//   23 
//   24   YOU FURTHER ACKNOWLEDGE AND AGREE THAT THE SOFTWARE AND DOCUMENTATION ARE
//   25   PROVIDED AS IS?WITHOUT WARRANTY OF ANY KIND, EITHER EXPRESS OR IMPLIED,
//   26   INCLUDING WITHOUT LIMITATION, ANY WARRANTY OF MERCHANTABILITY, TITLE,
//   27   NON-INFRINGEMENT AND FITNESS FOR A PARTICULAR PURPOSE. IN NO EVENT SHALL
//   28   TEXAS INSTRUMENTS OR ITS LICENSORS BE LIABLE OR OBLIGATED UNDER CONTRACT,
//   29   NEGLIGENCE, STRICT LIABILITY, CONTRIBUTION, BREACH OF WARRANTY, OR OTHER
//   30   LEGAL EQUITABLE THEORY ANY DIRECT OR INDIRECT DAMAGES OR EXPENSES
//   31   INCLUDING BUT NOT LIMITED TO ANY INCIDENTAL, SPECIAL, INDIRECT, PUNITIVE
//   32   OR CONSEQUENTIAL DAMAGES, LOST PROFITS OR LOST DATA, COST OF PROCUREMENT
//   33   OF SUBSTITUTE GOODS, TECHNOLOGY, SERVICES, OR ANY CLAIMS BY THIRD PARTIES
//   34   (INCLUDING BUT NOT LIMITED TO ANY DEFENSE THEREOF), OR OTHER SIMILAR COSTS.
//   35 
//   36   Should you have any questions regarding your right to use this Software,
//   37   contact Texas Instruments Incorporated at www.TI.com.
//   38 **************************************************************************************************/
//   39 /*********************************************************************
//   40  NOTE: If polling is used, the hal_driver task schedules the KeyRead()
//   41        to occur every 100ms.  This should be long enough to naturally
//   42        debounce the keys.  The KeyRead() function remembers the key
//   43        state of the previous poll and will only return a non-zero
//   44        value if the key state changes.
//   45 
//   46  NOTE: If interrupts are used, the KeyRead() function is scheduled
//   47        25ms after the interrupt occurs by the ISR.  This delay is used
//   48        for key debouncing.  The ISR disables any further Key interrupt
//   49        until KeyRead() is executed.  KeyRead() will re-enable Key
//   50        interrupts after executing.  Unlike polling, when interrupts
//   51        are enabled, the previous key state is not remembered.  This
//   52        means that KeyRead() will return the current state of the keys
//   53        (not a change in state of the keys).
//   54 
//   55  NOTE: If interrupts are used, the KeyRead() fucntion is scheduled by
//   56        the ISR.  Therefore, the joystick movements will only be detected
//   57        during a pushbutton interrupt caused by S1 or the center joystick
//   58        pushbutton.
//   59 
//   60  NOTE: When a switch like S1 is pushed, the S1 signal goes from a normally
//   61        high state to a low state.  This transition is typically clean.  The
//   62        duration of the low state is around 200ms.  When the signal returns
//   63        to the high state, there is a high likelihood of signal bounce, which
//   64        causes a unwanted interrupts.  Normally, we would set the interrupt
//   65        edge to falling edge to generate an interrupt when S1 is pushed, but
//   66        because of the signal bounce, it is better to set the edge to rising
//   67        edge to generate an interrupt when S1 is released.  The debounce logic
//   68        can then filter out the signal bounce.  The result is that we typically
//   69        get only 1 interrupt per button push.  This mechanism is not totally
//   70        foolproof because occasionally, signal bound occurs during the falling
//   71        edge as well.  A similar mechanism is used to handle the joystick
//   72        pushbutton on the DB.  For the EB, we do not have independent control
//   73        of the interrupt edge for the S1 and center joystick pushbutton.  As
//   74        a result, only one or the other pushbuttons work reasonably well with
//   75        interrupts.  The default is the make the S1 switch on the EB work more
//   76        reliably.
//   77 
//   78 *********************************************************************/
//   79 
//   80 /**************************************************************************************************
//   81  *                                            INCLUDES
//   82  **************************************************************************************************/
//   83 #include "hal_mcu.h"

        ASEGN SFR_AN:DATA:NOROOT,080H
// union <unnamed> volatile __sfr _A_P0
_A_P0:
        DATA8
        DS 1

        ASEGN SFR_AN:DATA:NOROOT,08fH
// unsigned char volatile __sfr P0INP
P0INP:
        DATA8
        DS 1

        ASEGN SFR_AN:DATA:NOROOT,0c0H
// union <unnamed> volatile __sfr _A_IRCON
_A_IRCON:
        DATA8
        DS 1

        ASEGN SFR_AN:DATA:NOROOT,0e8H
// union <unnamed> volatile __sfr _A_IRCON2
_A_IRCON2:
        DATA8
        DS 1

        ASEGN SFR_AN:DATA:NOROOT,0f3H
// unsigned char volatile __sfr P0SEL
P0SEL:
        DATA8
        DS 1

        ASEGN SFR_AN:DATA:NOROOT,0fdH
// unsigned char volatile __sfr P0DIR
P0DIR:
        DATA8
        DS 1
//   84 #include "hal_defs.h"
//   85 #include "hal_types.h"
//   86 #include "hal_board.h"
//   87 #include "hal_drivers.h"
//   88 #include "hal_adc.h"
//   89 #include "hal_key.h"
//   90 #include "osal.h"
//   91 
//   92 #if (defined HAL_KEY) && (HAL_KEY == TRUE)
//   93 
//   94 /**************************************************************************************************
//   95  *                                              MACROS
//   96  **************************************************************************************************/
//   97 
//   98 /**************************************************************************************************
//   99  *                                            CONSTANTS
//  100  **************************************************************************************************/
//  101 #define HAL_KEY_RISING_EDGE   0
//  102 #define HAL_KEY_FALLING_EDGE  1
//  103 
//  104 #define HAL_KEY_DEBOUNCE_VALUE  25
//  105 #define HAL_KEY_POLLING_VALUE   100
//  106 
//  107 /* CPU port interrupt */
//  108 #define HAL_KEY_CPU_PORT_0_IF P0IF
//  109 #define HAL_KEY_CPU_PORT_2_IF P2IF
//  110 
//  111 
//  112 
//  113 /**************************************************************************************************
//  114  *                                            TYPEDEFS
//  115  **************************************************************************************************/
//  116 
//  117 
//  118 /**************************************************************************************************
//  119  *                                        GLOBAL VARIABLES
//  120  **************************************************************************************************/

        RSEG XDATA_Z:XDATA:NOROOT(0)
        DATA8
//  121 static uint8 halKeySavedKeys;     /* used to store previous key state in polling mode */
halKeySavedKeys:
        DS 1
        REQUIRE __INIT_XDATA_Z

        RSEG XDATA_Z:XDATA:NOROOT(0)
        DATA16
//  122 static halKeyCBack_t pHalKeyProcessFunction;
pHalKeyProcessFunction:
        DS 2
        REQUIRE __INIT_XDATA_Z

        RSEG XDATA_Z:XDATA:NOROOT(0)
        DATA8
//  123 static uint8 HalKeyConfigured;
HalKeyConfigured:
        DS 1
        REQUIRE __INIT_XDATA_Z

        RSEG XDATA_Z:XDATA:NOROOT(0)
        DATA8
//  124 bool Hal_KeyIntEnable;            /* interrupt enable/disable flag */
Hal_KeyIntEnable:
        DS 1
        REQUIRE __INIT_XDATA_Z
//  125 
//  126 /**************************************************************************************************
//  127  *                                        FUNCTIONS - Local
//  128  **************************************************************************************************/
//  129 void halProcessKeyInterrupt(void);
//  130 uint8 halGetJoyKeyInput(void);
//  131 
//  132 
//  133 
//  134 /**************************************************************************************************
//  135  *                                        FUNCTIONS - API
//  136  **************************************************************************************************/
//  137 
//  138 
//  139 /**************************************************************************************************
//  140  * @fn      HalKeyInit
//  141  *
//  142  * @brief   Initilize Key Service
//  143  *
//  144  * @param   none
//  145  *
//  146  * @return  None
//  147  **************************************************************************************************/

        RSEG BANKED_CODE:CODE:NOROOT(0)
//  148 void HalKeyInit( void )
HalKeyInit:
        CFI Block cfiBlock0 Using cfiCommon0
        CFI Function HalKeyInit
        CODE
//  149 {
        PUSH    DPL
        CFI DPL0 Frame(CFA_SP, 4)
        CFI CFA_SP SP+-4
        PUSH    DPH
        CFI DPH0 Frame(CFA_SP, 5)
        CFI CFA_SP SP+-5
        ; Saved register size: 2
        ; Auto size: 0
//  150   /* Initialize previous key to 0 */
//  151   halKeySavedKeys = 0;
        MOV     DPTR,#halKeySavedKeys
        CLR     A
        MOVX    @DPTR,A
//  152 
//  153 
//  154     
//  155 
//  156   /* Initialize callback function */
//  157   pHalKeyProcessFunction  = NULL;
        MOV     DPTR,#pHalKeyProcessFunction
        MOVX    @DPTR,A
        INC     DPTR
        MOVX    @DPTR,A
//  158 
//  159   /* Start with key is not configured */
//  160   HalKeyConfigured = FALSE;
        MOV     DPTR,#HalKeyConfigured
        MOVX    @DPTR,A
        CFI EndBlock cfiBlock0
//  161 }
        REQUIRE ?Subroutine0
        ; // Fall through to label ?Subroutine0

        RSEG BANKED_CODE:CODE:NOROOT(0)
?Subroutine0:
        CFI Block cfiBlock1 Using cfiCommon0
        CFI NoFunction
        CFI CFA_SP SP+-5
        CFI DPL0 Frame(CFA_SP, 4)
        CFI DPH0 Frame(CFA_SP, 5)
        POP     DPH
        CFI CFA_SP SP+-4
        CFI DPH0 SameValue
        POP     DPL
        CFI CFA_SP SP+-3
        CFI DPL0 SameValue
        LJMP    ?BRET
        CFI EndBlock cfiBlock1
//  162 
//  163 
//  164 /**************************************************************************************************
//  165  * @fn      HalKeyConfig
//  166  *
//  167  * @brief   Configure the Key serivce
//  168  *
//  169  * @param   interruptEnable - TRUE/FALSE, enable/disable interrupt
//  170  *          cback - pointer to the CallBack function
//  171  *
//  172  * @return  None
//  173  **************************************************************************************************/

        RSEG BANKED_CODE:CODE:NOROOT(0)
//  174 void HalKeyConfig (bool interruptEnable, halKeyCBack_t cback)
HalKeyConfig:
        CFI Block cfiBlock2 Using cfiCommon0
        CFI Function HalKeyConfig
        CODE
//  175 {
        FUNCALL HalKeyConfig, osal_stop_timerEx
        LOCFRAME ISTACK, 0, STACK
        LOCFRAME PSTACK, 0, STACK
        LOCFRAME XSTACK, 9, STACK
        LOCFRAME IOVERLAY, 0, STATIC
        LOCFRAME DOVERLAY, 0, STATIC
        ARGFRAME ISTACK, 0, STACK
        ARGFRAME PSTACK, 0, STACK
        ARGFRAME XSTACK, 9, STACK
        ARGFRAME IOVERLAY, 0, STATIC
        ARGFRAME DOVERLAY, 0, STATIC
        FUNCALL HalKeyConfig, osal_start_timerEx
        LOCFRAME ISTACK, 0, STACK
        LOCFRAME PSTACK, 0, STACK
        LOCFRAME XSTACK, 9, STACK
        LOCFRAME IOVERLAY, 0, STATIC
        LOCFRAME DOVERLAY, 0, STATIC
        ARGFRAME ISTACK, 0, STACK
        ARGFRAME PSTACK, 0, STACK
        ARGFRAME XSTACK, 9, STACK
        ARGFRAME IOVERLAY, 0, STATIC
        ARGFRAME DOVERLAY, 0, STATIC
        MOV     A,#-0x9
        LCALL   ?BANKED_ENTER_XDATA
        CFI DPH0 load(1, XDATA, add(CFA_XSP16, literal(-1)))
        CFI DPL0 load(1, XDATA, add(CFA_XSP16, literal(-2)))
        CFI ?BRET_EXT load(1, XDATA, add(CFA_XSP16, literal(-3)))
        CFI ?RET_HIGH load(1, XDATA, add(CFA_XSP16, literal(-4)))
        CFI ?RET_LOW load(1, XDATA, add(CFA_XSP16, literal(-5)))
        CFI R7 load(1, XDATA, add(CFA_XSP16, literal(-6)))
        CFI V0 load(1, XDATA, add(CFA_XSP16, literal(-7)))
        CFI VB load(1, XDATA, add(CFA_XSP16, literal(-8)))
        CFI R6 load(1, XDATA, add(CFA_XSP16, literal(-9)))
        CFI CFA_SP SP+0
        CFI CFA_XSP16 add(XSP16, 9)
        ; Saved register size: 9
        ; Auto size: 0
        MOV     A,R1
//  176   /* Enable/Disable Interrupt or */
//  177   Hal_KeyIntEnable = interruptEnable;
        MOV     DPTR,#Hal_KeyIntEnable
        MOVX    @DPTR,A
//  178 
//  179   /* Register the callback fucntion */
//  180   pHalKeyProcessFunction = cback;
        MOV     DPTR,#pHalKeyProcessFunction
        MOV     A,R2
        MOVX    @DPTR,A
        INC     DPTR
        MOV     A,R3
        MOVX    @DPTR,A
//  181 
//  182   /* Determine if interrupt is enable or not */
//  183   if (Hal_KeyIntEnable)
        MOV     DPTR,#Hal_KeyIntEnable
        MOVX    A,@DPTR
        JZ      ??HalKeyConfig_0
//  184   {
//  185     /* Rising/Falling edge configuratinn */
//  186 
//  187 
//  188 
//  189    
//  190     /* Do this only after the hal_key is configured - to work with sleep stuff */
//  191     if (HalKeyConfigured == TRUE)
        MOV     DPTR,#HalKeyConfigured
        MOVX    A,@DPTR
        XRL     A,#0x1
        JNZ     ??HalKeyConfig_1
//  192     {
//  193       osal_stop_timerEx( Hal_TaskID, HAL_KEY_EVENT);  /* Cancel polling if active */
        ; Setup parameters for call to function osal_stop_timerEx
        MOV     R2,#0x1
        MOV     R3,#0x0
        MOV     DPTR,#Hal_TaskID
        MOVX    A,@DPTR
        MOV     R1,A
        LCALL   ??osal_stop_timerEx?relay
        SJMP    ??HalKeyConfig_1
//  194     }
//  195   }
//  196   else    /* Interrupts NOT enabled */
//  197   {
//  198    
//  199     P0SEL &= ~0x10;     //设置P0.4为普通IO口  
??HalKeyConfig_0:
        ANL     0xf3,#0xef
//  200     P0DIR &= ~0x10;     //按键接在P0.4口上，设P0.4为输入模式 
        ANL     0xfd,#0xef
//  201     P0INP &= ~0x10;     //打开P0.4上拉电阻
        ANL     0x8f,#0xef
//  202     
//  203     P0SEL &= ~0x20;     //设置P0.5为普通IO口  
        ANL     0xf3,#0xdf
//  204     P0DIR &= ~0x20;     //按键接在P0.5口上，设P0.5为输入模式 
        ANL     0xfd,#0xdf
//  205     P0INP &= ~0x20;     //打开P0.5上拉电阻
        ANL     0x8f,#0xdf
//  206     
//  207     
//  208     P0SEL &= ~0x40;     //设置P0.6为普通IO口  
        ANL     0xf3,#0xbf
//  209     P0DIR &= ~0x40;     //按键接在P0.6口上，设P0.6为输入模式 
        ANL     0xfd,#0xbf
//  210     P0INP |= 0x40;     //P0.6 float
        ORL     0x8f,#0x40
//  211    // P2INP |= 1<<5; // down
//  212   
//  213     osal_start_timerEx (Hal_TaskID, HAL_KEY_EVENT, HAL_KEY_POLLING_VALUE);    /* Kick off polling */
        ; Setup parameters for call to function osal_start_timerEx
        MOV     R4,#0x64
        MOV     R5,#0x0
        MOV     R2,#0x1
        MOV     R3,#0x0
        MOV     DPTR,#Hal_TaskID
        MOVX    A,@DPTR
        MOV     R1,A
        LCALL   ??osal_start_timerEx?relay
//  214   }
//  215 
//  216   /* Key now is configured */
//  217   HalKeyConfigured = TRUE;
??HalKeyConfig_1:
        MOV     DPTR,#HalKeyConfigured
        MOV     A,#0x1
        MOVX    @DPTR,A
//  218 }
        MOV     R7,A
        LJMP    ?BANKED_LEAVE_XDATA
        CFI EndBlock cfiBlock2
        REQUIRE P0SEL
        REQUIRE P0DIR
        REQUIRE P0INP
//  219 
//  220 
//  221 /**************************************************************************************************
//  222  * @fn      HalKeyRead
//  223  *
//  224  * @brief   Read the current value of a key
//  225  *
//  226  * @param   None
//  227  *
//  228  * @return  keys - current keys status
//  229  **************************************************************************************************/

        RSEG BANKED_CODE:CODE:NOROOT(0)
//  230 uint8 HalKeyRead ( void )
HalKeyRead:
        CFI Block cfiBlock3 Using cfiCommon0
        CFI Function HalKeyRead
        CODE
//  231 {
        ; Saved register size: 0
        ; Auto size: 0
//  232   uint8 keys = 0;
//  233 
//  234   if (P0_6)//S0
        MOV     C,0x80.6
        JNC     ??HalKeyRead_0
//  235   {
//  236     keys |= HAL_KEY_DATA_HIGH; 
        MOV     R1,#0x10
        SJMP    ??HalKeyRead_1
//  237   } else {
//  238     keys |= HAL_KEY_DATA_LOW; 
??HalKeyRead_0:
        MOV     R1,#0x20
//  239   }
//  240 
//  241   
//  242   if (!P0_4)//S1 
??HalKeyRead_1:
        MOV     C,0x80.4
        JC      ??HalKeyRead_2
//  243   {
//  244     keys |= HAL_KEY_SW_1; 
        MOV     A,R1
        SETB    0xE0 /* A   */.0
        MOV     R1,A
//  245   }
//  246   
//  247   
//  248   if (!P0_5)//S2 
??HalKeyRead_2:
        MOV     C,0x80.5
        JC      ??HalKeyRead_3
//  249   {
//  250     keys |= HAL_KEY_SW_2; 
        MOV     A,R1
        SETB    0xE0 /* A   */.1
        MOV     R1,A
//  251   }
//  252 
//  253   return keys;
??HalKeyRead_3:
        LJMP    ?BRET
        CFI EndBlock cfiBlock3
        REQUIRE _A_P0
//  254 }
//  255 
//  256 
//  257 /**************************************************************************************************
//  258  * @fn      HalKeyPoll
//  259  *
//  260  * @brief   Called by hal_driver to poll the keys
//  261  *
//  262  * @param   None
//  263  *
//  264  * @return  None
//  265  **************************************************************************************************/

        RSEG BANKED_CODE:CODE:NOROOT(0)
//  266 void HalKeyPoll (void)
HalKeyPoll:
        CFI Block cfiBlock4 Using cfiCommon0
        CFI Function HalKeyPoll
        CODE
//  267 {
        PUSH    DPL
        CFI DPL0 Frame(CFA_SP, 4)
        CFI CFA_SP SP+-4
        PUSH    DPH
        CFI DPH0 Frame(CFA_SP, 5)
        CFI CFA_SP SP+-5
        ; Saved register size: 2
        ; Auto size: 0
//  268   uint8 keys = 0;
//  269 
//  270 /* if ((HAL_KEY_JOY_MOVE_PORT & HAL_KEY_JOY_MOVE_BIT))  // Key is active HIGH 
//  271   {
//  272     keys = halGetJoyKeyInput();
//  273   }
//  274 */
//  275   if (P0_6)//S0
        MOV     C,0x80.6
        JNC     ??HalKeyPoll_0
//  276   {
//  277     keys |= HAL_KEY_DATA_HIGH; 
        MOV     R1,#0x10
        SJMP    ??HalKeyPoll_1
//  278   } else {
//  279     keys |= HAL_KEY_DATA_LOW; 
??HalKeyPoll_0:
        MOV     R1,#0x20
//  280   }
//  281 
//  282   
//  283   if (!P0_4)//S1 
??HalKeyPoll_1:
        MOV     C,0x80.4
        JC      ??HalKeyPoll_2
//  284   {
//  285     keys |= HAL_KEY_SW_1; 
        MOV     A,R1
        SETB    0xE0 /* A   */.0
        MOV     R1,A
//  286   }
//  287   
//  288   
//  289   if (!P0_5)//S2 
??HalKeyPoll_2:
        MOV     C,0x80.5
        JC      ??HalKeyPoll_3
//  290   {
//  291     keys |= HAL_KEY_SW_2; 
        MOV     A,R1
        SETB    0xE0 /* A   */.1
        MOV     R1,A
//  292   }
//  293   
//  294   
//  295   if (!Hal_KeyIntEnable)
??HalKeyPoll_3:
        MOV     DPTR,#Hal_KeyIntEnable
        MOVX    A,@DPTR
        JNZ     ??HalKeyPoll_4
//  296   {
//  297     if (keys == halKeySavedKeys)
        MOV     DPTR,#halKeySavedKeys
        MOVX    A,@DPTR
        XRL     A,R1
        JZ      ??HalKeyPoll_5
//  298     {
//  299       /* Exit - since no keys have changed */
//  300       return;
//  301     }
//  302     /* Store the current keys for comparation next time */
//  303     halKeySavedKeys = keys;
        MOV     A,R1
        MOVX    @DPTR,A
//  304   }
//  305   else
//  306   {
//  307     /* Key interrupt handled here */
//  308   }
//  309 
//  310   /* Invoke Callback if new keys were depressed */
//  311   if (keys && (pHalKeyProcessFunction))
??HalKeyPoll_4:
        MOV     A,R1
        JZ      ??HalKeyPoll_5
        MOV     DPTR,#pHalKeyProcessFunction
        MOVX    A,@DPTR
        MOV     R2,A
        INC     DPTR
        MOVX    A,@DPTR
        MOV     R3,A
        MOV     A,R2
        ORL     A,R3
        JZ      ??HalKeyPoll_5
//  312   {
//  313     (pHalKeyProcessFunction) (keys, HAL_KEY_STATE_NORMAL);
        ; Setup parameters for indirect call
        MOV     R2,#0x0
        MOV     DPTR,#pHalKeyProcessFunction
        MOVX    A,@DPTR
        MOV     R0,A
        INC     DPTR
        MOVX    A,@DPTR
        MOV     DPH,A
        MOV     DPL,R0
        LCALL   ?CALL_IND
//  314   }
??HalKeyPoll_5:
        LJMP    ?Subroutine0 & 0xFFFF
        CFI EndBlock cfiBlock4
        REQUIRE _A_P0
//  315 }
//  316 
//  317 
//  318 
//  319 
//  320 /**************************************************************************************************
//  321  * @fn      halProcessKeyInterrupt
//  322  *
//  323  * @brief   Checks to see if it's a valid key interrupt, saves interrupt driven key states for
//  324  *          processing by HalKeyRead(), and debounces keys by scheduling HalKeyRead() 25ms later.
//  325  *
//  326  * @param
//  327  *
//  328  * @return
//  329  **************************************************************************************************/

        RSEG BANKED_CODE:CODE:NOROOT(0)
//  330 void halProcessKeyInterrupt (void)
halProcessKeyInterrupt:
        CFI Block cfiBlock5 Using cfiCommon0
        CFI Function halProcessKeyInterrupt
        CODE
//  331 {
        ; Saved register size: 0
        ; Auto size: 0
//  332   bool valid=FALSE;
//  333 
//  334   if (valid)
//  335   {
//  336     osal_start_timerEx (Hal_TaskID, HAL_KEY_EVENT, HAL_KEY_DEBOUNCE_VALUE);
//  337   }
//  338 }
        LJMP    ?BRET
        CFI EndBlock cfiBlock5
//  339 
//  340 /**************************************************************************************************
//  341  * @fn      HalKeyEnterSleep
//  342  *
//  343  * @brief  - Get called to enter sleep mode
//  344  *
//  345  * @param
//  346  *
//  347  * @return
//  348  **************************************************************************************************/

        RSEG BANKED_CODE:CODE:NOROOT(0)
//  349 void HalKeyEnterSleep ( void )
HalKeyEnterSleep:
        CFI Block cfiBlock6 Using cfiCommon0
        CFI Function HalKeyEnterSleep
        CODE
//  350 {
        ; Saved register size: 0
        ; Auto size: 0
//  351 }
        LJMP    ?BRET
        CFI EndBlock cfiBlock6
//  352 
//  353 /**************************************************************************************************
//  354  * @fn      HalKeyExitSleep
//  355  *
//  356  * @brief   - Get called when sleep is over
//  357  *
//  358  * @param
//  359  *
//  360  * @return  - return saved keys
//  361  **************************************************************************************************/

        RSEG BANKED_CODE:CODE:NOROOT(0)
//  362 uint8 HalKeyExitSleep ( void )
HalKeyExitSleep:
        CFI Block cfiBlock7 Using cfiCommon0
        CFI Function HalKeyExitSleep
        CODE
//  363 {
        FUNCALL HalKeyExitSleep, HalKeyRead
        LOCFRAME ISTACK, 2, STACK
        LOCFRAME PSTACK, 0, STACK
        LOCFRAME XSTACK, 0, STACK
        LOCFRAME IOVERLAY, 0, STATIC
        LOCFRAME DOVERLAY, 0, STATIC
        ARGFRAME ISTACK, 2, STACK
        ARGFRAME PSTACK, 0, STACK
        ARGFRAME XSTACK, 0, STACK
        ARGFRAME IOVERLAY, 0, STATIC
        ARGFRAME DOVERLAY, 0, STATIC
        PUSH    DPL
        CFI DPL0 Frame(CFA_SP, 4)
        CFI CFA_SP SP+-4
        PUSH    DPH
        CFI DPH0 Frame(CFA_SP, 5)
        CFI CFA_SP SP+-5
        ; Saved register size: 2
        ; Auto size: 0
//  364   /* Wake up and read keys */
//  365   return ( HalKeyRead () );
        ; Setup parameters for call to function HalKeyRead
        LCALL   ??HalKeyRead?relay
        LJMP    ?Subroutine0 & 0xFFFF
        CFI EndBlock cfiBlock7
//  366 }
//  367 
//  368 /***************************************************************************************************
//  369  *                                    INTERRUPT SERVICE ROUTINE
//  370  ***************************************************************************************************/
//  371 
//  372 /**************************************************************************************************
//  373  * @fn      halKeyPort0Isr
//  374  *
//  375  * @brief   Port0 ISR
//  376  *
//  377  * @param
//  378  *
//  379  * @return
//  380  **************************************************************************************************/

        RSEG NEAR_CODE:CODE:NOROOT(0)
//  381 HAL_ISR_FUNCTION( halKeyPort0Isr, P0INT_VECTOR )
halKeyPort0Isr:
        CFI Block cfiBlock8 Using cfiCommon1
        CFI Function halKeyPort0Isr
        CODE
//  382 {
        ; Saved register size: 1
        ; Auto size: 0
//  383   HAL_KEY_CPU_PORT_0_IF = 0;
        CLR     0xc0.5
//  384 }
        RETI
        CFI EndBlock cfiBlock8
        REQUIRE _A_IRCON
//  385 
//  386 
//  387 /**************************************************************************************************
//  388  * @fn      halKeyPort2Isr
//  389  *
//  390  * @brief   Port2 ISR
//  391  *
//  392  * @param
//  393  *
//  394  * @return
//  395  **************************************************************************************************/

        RSEG NEAR_CODE:CODE:NOROOT(0)
//  396 HAL_ISR_FUNCTION( halKeyPort2Isr, P2INT_VECTOR )
halKeyPort2Isr:
        CFI Block cfiBlock9 Using cfiCommon1
        CFI Function halKeyPort2Isr
        CODE
//  397 {
        ; Saved register size: 1
        ; Auto size: 0
//  398   HAL_KEY_CPU_PORT_2_IF = 0;
        CLR     0xe8.0
//  399 }
        RETI
        CFI EndBlock cfiBlock9
        REQUIRE _A_IRCON2

        COMMON INTVEC:CODE:ROOT(0)
        ORG 51
`??halKeyPort2Isr??INTVEC 51`:
        LJMP       (halKeyPort2Isr)

        COMMON INTVEC:CODE:ROOT(0)
        ORG 107
`??halKeyPort0Isr??INTVEC 107`:
        LJMP       (halKeyPort0Isr)

        RSEG BANK_RELAYS:CODE:REORDER:NOROOT(0)
??HalKeyInit?relay:
        LCALL   ?BDISPATCH
        DATA
        DC24    HalKeyInit

        RSEG BANK_RELAYS:CODE:REORDER:NOROOT(0)
??HalKeyConfig?relay:
        LCALL   ?BDISPATCH
        DATA
        DC24    HalKeyConfig

        RSEG BANK_RELAYS:CODE:REORDER:NOROOT(0)
??HalKeyRead?relay:
        LCALL   ?BDISPATCH
        DATA
        DC24    HalKeyRead

        RSEG BANK_RELAYS:CODE:REORDER:NOROOT(0)
??HalKeyPoll?relay:
        LCALL   ?BDISPATCH
        DATA
        DC24    HalKeyPoll

        RSEG BANK_RELAYS:CODE:REORDER:NOROOT(0)
??halProcessKeyInterrupt?relay:
        LCALL   ?BDISPATCH
        DATA
        DC24    halProcessKeyInterrupt

        RSEG BANK_RELAYS:CODE:REORDER:NOROOT(0)
??HalKeyEnterSleep?relay:
        LCALL   ?BDISPATCH
        DATA
        DC24    HalKeyEnterSleep

        RSEG BANK_RELAYS:CODE:REORDER:NOROOT(0)
??HalKeyExitSleep?relay:
        LCALL   ?BDISPATCH
        DATA
        DC24    HalKeyExitSleep

        END
//  400 
//  401 #else
//  402 
//  403 
//  404 void HalKeyInit(void){}
//  405 void HalKeyConfig(bool interruptEnable, halKeyCBack_t cback){}
//  406 uint8 HalKeyRead(void){ return 0;}
//  407 void HalKeyPoll(void){}
//  408 
//  409 #endif /* HAL_KEY */
//  410 
//  411 
//  412 
//  413 
//  414 
//  415 /**************************************************************************************************
//  416 **************************************************************************************************/
//  417 
//  418 
//  419 
// 
// 249 bytes in segment BANKED_CODE
//  42 bytes in segment BANK_RELAYS
//   6 bytes in segment INTVEC
//   6 bytes in segment NEAR_CODE
//   6 bytes in segment SFR_AN
//   5 bytes in segment XDATA_Z
// 
// 297 bytes of CODE  memory (+ 6 bytes shared)
//   0 bytes of DATA  memory (+ 6 bytes shared)
//   5 bytes of XDATA memory
//
//Errors: none
//Warnings: none
